

Microchip MPLAB XC8 Assembler V3.10 build 20250813170317 
                                                                                               Wed Nov 19 18:34:40 2025

Microchip MPLAB XC8 C Compiler v3.10 (Free license) build 20250813170317 Og1 
     1                           	processor	18F67J60
     2                           	fnconf	rparam,??,?,0
     3                           	pagewidth 120
     4                           	opt	flic
     5                           	psect	nvCOMRAM,global,class=COMRAM,space=1,delta=1,lowdata,noexec
     6                           	psect	nvBANK0,global,class=BANK0,space=1,delta=1,lowdata,noexec
     7                           	psect	cinit,global,reloc=2,class=CODE,space=0,delta=1
     8                           	psect	bssCOMRAM,global,class=COMRAM,space=1,delta=1,lowdata,noexec
     9                           	psect	bssBANK0,global,class=BANK0,space=1,delta=1,lowdata,noexec
    10                           	psect	cstackBANK0,global,class=BANK0,space=1,delta=1,lowdata,noexec
    11                           	psect	cstackCOMRAM,global,class=COMRAM,space=1,delta=1,lowdata,noexec
    12                           	psect	text0,global,reloc=2,class=CODE,space=0,delta=1
    13                           	psect	text1,global,reloc=2,class=CODE,space=0,delta=1
    14                           	psect	text2,global,reloc=2,class=CODE,space=0,delta=1,group=1
    15                           	psect	text3,global,reloc=2,class=CODE,space=0,delta=1,group=1
    16                           	psect	text4,global,reloc=2,class=CODE,space=0,delta=1,group=1
    17                           	psect	text5,global,reloc=2,class=CODE,space=0,delta=1
    18                           	psect	text6,global,reloc=2,class=CODE,space=0,delta=1
    19                           	psect	text7,global,reloc=2,class=CODE,space=0,delta=1
    20                           	psect	text8,global,reloc=2,class=CODE,space=0,delta=1
    21                           	psect	text9,global,reloc=2,class=CODE,space=0,delta=1
    22                           	psect	text10,global,reloc=2,class=CODE,space=0,delta=1
    23                           	psect	text11,global,reloc=2,class=CODE,space=0,delta=1
    24                           	psect	text12,global,reloc=2,class=CODE,space=0,delta=1
    25                           	psect	text13,global,reloc=2,class=CODE,space=0,delta=1
    26                           	psect	text14,global,reloc=2,class=CODE,space=0,delta=1
    27                           	psect	text15,global,reloc=2,class=CODE,space=0,delta=1
    28                           	psect	intcode,global,reloc=2,class=CODE,space=0,delta=1
    29                           	psect	text17,global,reloc=2,class=CODE,space=0,delta=1
    30                           	psect	text18,global,reloc=2,class=CODE,space=0,delta=1
    31                           	psect	text19,global,reloc=2,class=CODE,space=0,delta=1
    32                           	psect	text20,global,reloc=2,class=CODE,space=0,delta=1
    33                           	psect	text21,global,reloc=2,class=CODE,space=0,delta=1
    34                           	psect	text22,global,reloc=2,class=CODE,space=0,delta=1
    35                           	psect	text23,global,reloc=2,class=CODE,space=0,delta=1
    36                           	psect	smallconst,global,reloc=2,class=SMALLCONST,space=0,delta=1,noexec
    37                           	psect	intsave_regs,global,class=BIGRAM,space=1,delta=1,noexec
    38                           	psect	rparam,global,class=COMRAM,space=1,delta=1,noexec
    39                           	psect	config,global,abs,ovrld,class=CONFIG,space=4,delta=1,noexec
    40                           	dabs	1,0x1,1
    41   000000                     
    42                           ; Generated 22/02/2024 GMT
    43                           ; 
    44                           ; Copyright © 2024, Microchip Technology Inc. and its subsidiaries ("Microchip")
    45                           ; All rights reserved.
    46                           ; 
    47                           ; This software is developed by Microchip Technology Inc. and its subsidiaries ("Microch
      +                          ip").
    48                           ; 
    49                           ; Redistribution and use in source and binary forms, with or without modification, are
    50                           ; permitted provided that the following conditions are met:
    51                           ; 
    52                           ;     1. Redistributions of source code must retain the above copyright notice, this lis
      +                          t of
    53                           ;        conditions and the following disclaimer.
    54                           ; 
    55                           ;     2. Redistributions in binary form must reproduce the above copyright notice, this 
      +                          list
    56                           ;        of conditions and the following disclaimer in the documentation and/or other
    57                           ;        materials provided with the distribution. Publication is not required when
    58                           ;        this file is used in an embedded application.
    59                           ; 
    60                           ;     3. Microchip's name may not be used to endorse or promote products derived from th
      +                          is
    61                           ;        software without specific prior written permission.
    62                           ; 
    63                           ; THIS SOFTWARE IS PROVIDED BY MICROCHIP "AS IS" AND ANY EXPRESS OR IMPLIED WARRANTIES,
    64                           ; INCLUDING, BUT NOT LIMITED TO, THE IMPLIED WARRANTIES OF MERCHANTABILITY AND FITNESS F
      +                          OR
    65                           ; PURPOSE ARE DISCLAIMED.  IN NO EVENT SHALL MICROCHIP BE LIABLE FOR ANY DIRECT, INDIREC
      +                          T,
    66                           ; INCIDENTAL, SPECIAL, EXEMPLARY, OR CONSEQUENTIAL DAMAGES (INCLUDING BUT NOT LIMITED TO
    67                           ; PROCUREMENT OF SUBSTITUTE GOODS OR SERVICES; LOSS OF USE, DATA OR PROFITS; OR BUSINESS
    68                           ; INTERRUPTION) HOWSOEVER CAUSED AND ON ANY THEORY OF LIABILITY, WHETHER IN CONTRACT, ST
      +                          RICT
    69                           ; LIABILITY, OR TORT (INCLUDING NEGLIGENCE OR OTHERWISE) ARISING IN ANY WAY OUT OF THE U
      +                          SE OF
    70                           ; THIS SOFTWARE, EVEN IF ADVISED OF THE POSSIBILITY OF SUCH DAMAGE.
    71                           ; 
    72                           ; 
    73                           ; Code-generator required, PIC18F67J60 Definitions
    74                           ; 
    75                           ; SFR Addresses
    76   000FE0                     bsr             equ	4064
    77   000FE9                     fsr0            equ	4073
    78   000FEA                     fsr0h           equ	4074
    79   000FE9                     fsr0l           equ	4073
    80   000FE1                     fsr1            equ	4065
    81   000FE2                     fsr1h           equ	4066
    82   000FE1                     fsr1l           equ	4065
    83   000FD9                     fsr2            equ	4057
    84   000FDA                     fsr2h           equ	4058
    85   000FD9                     fsr2l           equ	4057
    86   000FEF                     indf0           equ	4079
    87   000FE7                     indf1           equ	4071
    88   000FDF                     indf2           equ	4063
    89   000FF2                     intcon          equ	4082
    90   000000                     nvmcon          equ	0
    91   000FF9                     pcl             equ	4089
    92   000FFA                     pclath          equ	4090
    93   000FFB                     pclatu          equ	4091
    94   000FEB                     plusw0          equ	4075
    95   000FE3                     plusw1          equ	4067
    96   000FDB                     plusw2          equ	4059
    97   000FED                     postdec0        equ	4077
    98   000FE5                     postdec1        equ	4069
    99   000FDD                     postdec2        equ	4061
   100   000FEE                     postinc0        equ	4078
   101   000FE6                     postinc1        equ	4070
   102   000FDE                     postinc2        equ	4062
   103   000FEC                     preinc0         equ	4076
   104   000FE4                     preinc1         equ	4068
   105   000FDC                     preinc2         equ	4060
   106   000FF3                     prod            equ	4083
   107   000FF4                     prodh           equ	4084
   108   000FF3                     prodl           equ	4083
   109   000FD8                     status          equ	4056
   110   000FF5                     tablat          equ	4085
   111   000FF6                     tblptr          equ	4086
   112   000FF7                     tblptrh         equ	4087
   113   000FF6                     tblptrl         equ	4086
   114   000FF8                     tblptru         equ	4088
   115   000FFD                     tosl            equ	4093
   116   000FE8                     wreg            equ	4072
   117   000E80                     MAADR5          equ	3712	;# 
   118   000E81                     MAADR6          equ	3713	;# 
   119   000E82                     MAADR3          equ	3714	;# 
   120   000E83                     MAADR4          equ	3715	;# 
   121   000E84                     MAADR1          equ	3716	;# 
   122   000E85                     MAADR2          equ	3717	;# 
   123   000E8A                     MISTAT          equ	3722	;# 
   124   000E97                     EFLOCON         equ	3735	;# 
   125   000E98                     EPAUS           equ	3736	;# 
   126   000E98                     EPAUSL          equ	3736	;# 
   127   000E99                     EPAUSH          equ	3737	;# 
   128   000EA0                     MACON1          equ	3744	;# 
   129   000EA2                     MACON3          equ	3746	;# 
   130   000EA3                     MACON4          equ	3747	;# 
   131   000EA4                     MABBIPG         equ	3748	;# 
   132   000EA6                     MAIPG           equ	3750	;# 
   133   000EA6                     MAIPGL          equ	3750	;# 
   134   000EA7                     MAIPGH          equ	3751	;# 
   135   000EAA                     MAMXFL          equ	3754	;# 
   136   000EAA                     MAMXFLL         equ	3754	;# 
   137   000EAB                     MAMXFLH         equ	3755	;# 
   138   000EB2                     MICMD           equ	3762	;# 
   139   000EB4                     MIREGADR        equ	3764	;# 
   140   000EB6                     MIWR            equ	3766	;# 
   141   000EB6                     MIWRL           equ	3766	;# 
   142   000EB7                     MIWRH           equ	3767	;# 
   143   000EB8                     MIRD            equ	3768	;# 
   144   000EB8                     MIRDL           equ	3768	;# 
   145   000EB9                     MIRDH           equ	3769	;# 
   146   000EC0                     EHT0            equ	3776	;# 
   147   000EC1                     EHT1            equ	3777	;# 
   148   000EC2                     EHT2            equ	3778	;# 
   149   000EC3                     EHT3            equ	3779	;# 
   150   000EC4                     EHT4            equ	3780	;# 
   151   000EC5                     EHT5            equ	3781	;# 
   152   000EC6                     EHT6            equ	3782	;# 
   153   000EC7                     EHT7            equ	3783	;# 
   154   000EC8                     EPMM0           equ	3784	;# 
   155   000EC9                     EPMM1           equ	3785	;# 
   156   000ECA                     EPMM2           equ	3786	;# 
   157   000ECB                     EPMM3           equ	3787	;# 
   158   000ECC                     EPMM4           equ	3788	;# 
   159   000ECD                     EPMM5           equ	3789	;# 
   160   000ECE                     EPMM6           equ	3790	;# 
   161   000ECF                     EPMM7           equ	3791	;# 
   162   000ED0                     EPMCS           equ	3792	;# 
   163   000ED0                     EPMCSL          equ	3792	;# 
   164   000ED1                     EPMCSH          equ	3793	;# 
   165   000ED4                     EPMO            equ	3796	;# 
   166   000ED4                     EPMOL           equ	3796	;# 
   167   000ED5                     EPMOH           equ	3797	;# 
   168   000ED8                     ERXFCON         equ	3800	;# 
   169   000ED9                     EPKTCNT         equ	3801	;# 
   170   000EE2                     EWRPT           equ	3810	;# 
   171   000EE2                     EWRPTL          equ	3810	;# 
   172   000EE3                     EWRPTH          equ	3811	;# 
   173   000EE4                     ETXST           equ	3812	;# 
   174   000EE4                     ETXSTL          equ	3812	;# 
   175   000EE5                     ETXSTH          equ	3813	;# 
   176   000EE6                     ETXND           equ	3814	;# 
   177   000EE6                     ETXNDL          equ	3814	;# 
   178   000EE7                     ETXNDH          equ	3815	;# 
   179   000EE8                     ERXST           equ	3816	;# 
   180   000EE8                     ERXSTL          equ	3816	;# 
   181   000EE9                     ERXSTH          equ	3817	;# 
   182   000EEA                     ERXND           equ	3818	;# 
   183   000EEA                     ERXNDL          equ	3818	;# 
   184   000EEB                     ERXNDH          equ	3819	;# 
   185   000EEC                     ERXRDPT         equ	3820	;# 
   186   000EEC                     ERXRDPTL        equ	3820	;# 
   187   000EED                     ERXRDPTH        equ	3821	;# 
   188   000EEE                     ERXWRPT         equ	3822	;# 
   189   000EEE                     ERXWRPTL        equ	3822	;# 
   190   000EEF                     ERXWRPTH        equ	3823	;# 
   191   000EF0                     EDMAST          equ	3824	;# 
   192   000EF0                     EDMASTL         equ	3824	;# 
   193   000EF1                     EDMASTH         equ	3825	;# 
   194   000EF2                     EDMAND          equ	3826	;# 
   195   000EF2                     EDMANDL         equ	3826	;# 
   196   000EF3                     EDMANDH         equ	3827	;# 
   197   000EF4                     EDMADST         equ	3828	;# 
   198   000EF4                     EDMADSTL        equ	3828	;# 
   199   000EF5                     EDMADSTH        equ	3829	;# 
   200   000EF6                     EDMACS          equ	3830	;# 
   201   000EF6                     EDMACSL         equ	3830	;# 
   202   000EF7                     EDMACSH         equ	3831	;# 
   203   000EFB                     EIE             equ	3835	;# 
   204   000EFD                     ESTAT           equ	3837	;# 
   205   000EFE                     ECON2           equ	3838	;# 
   206   000F60                     EIR             equ	3936	;# 
   207   000F61                     EDATA           equ	3937	;# 
   208   000F67                     ECCP2DEL        equ	3943	;# 
   209   000F68                     ECCP2AS         equ	3944	;# 
   210   000F69                     ECCP3DEL        equ	3945	;# 
   211   000F6A                     ECCP3AS         equ	3946	;# 
   212   000F70                     CCP5CON         equ	3952	;# 
   213   000F71                     CCPR5           equ	3953	;# 
   214   000F71                     CCPR5L          equ	3953	;# 
   215   000F72                     CCPR5H          equ	3954	;# 
   216   000F73                     CCP4CON         equ	3955	;# 
   217   000F74                     CCPR4           equ	3956	;# 
   218   000F74                     CCPR4L          equ	3956	;# 
   219   000F75                     CCPR4H          equ	3957	;# 
   220   000F76                     T4CON           equ	3958	;# 
   221   000F77                     PR4             equ	3959	;# 
   222   000F78                     TMR4            equ	3960	;# 
   223   000F79                     ECCP1DEL        equ	3961	;# 
   224   000F7A                     ERDPT           equ	3962	;# 
   225   000F7A                     ERDPTL          equ	3962	;# 
   226   000F7B                     ERDPTH          equ	3963	;# 
   227   000F7E                     BAUDCON1        equ	3966	;# 
   228   000F7E                     BAUDCON         equ	3966	;# 
   229   000F7E                     BAUDCTL         equ	3966	;# 
   230   000F7E                     BAUDCTL1        equ	3966	;# 
   231   000F7F                     SPBRGH1         equ	3967	;# 
   232   000F7F                     SPBRGH          equ	3967	;# 
   233   000F80                     PORTA           equ	3968	;# 
   234   000F81                     PORTB           equ	3969	;# 
   235   000F82                     PORTC           equ	3970	;# 
   236   000F83                     PORTD           equ	3971	;# 
   237   000F84                     PORTE           equ	3972	;# 
   238   000F85                     PORTF           equ	3973	;# 
   239   000F86                     PORTG           equ	3974	;# 
   240   000F89                     LATA            equ	3977	;# 
   241   000F8A                     LATB            equ	3978	;# 
   242   000F8B                     LATC            equ	3979	;# 
   243   000F8C                     LATD            equ	3980	;# 
   244   000F8D                     LATE            equ	3981	;# 
   245   000F8E                     LATF            equ	3982	;# 
   246   000F8F                     LATG            equ	3983	;# 
   247   000F92                     TRISA           equ	3986	;# 
   248   000F92                     DDRA            equ	3986	;# 
   249   000F93                     TRISB           equ	3987	;# 
   250   000F93                     DDRB            equ	3987	;# 
   251   000F94                     TRISC           equ	3988	;# 
   252   000F94                     DDRC            equ	3988	;# 
   253   000F95                     TRISD           equ	3989	;# 
   254   000F95                     DDRD            equ	3989	;# 
   255   000F96                     TRISE           equ	3990	;# 
   256   000F96                     DDRE            equ	3990	;# 
   257   000F97                     TRISF           equ	3991	;# 
   258   000F97                     DDRF            equ	3991	;# 
   259   000F98                     TRISG           equ	3992	;# 
   260   000F98                     DDRG            equ	3992	;# 
   261   000F9B                     OSCTUNE         equ	3995	;# 
   262   000F9D                     PIE1            equ	3997	;# 
   263   000F9E                     PIR1            equ	3998	;# 
   264   000F9F                     IPR1            equ	3999	;# 
   265   000FA0                     PIE2            equ	4000	;# 
   266   000FA1                     PIR2            equ	4001	;# 
   267   000FA2                     IPR2            equ	4002	;# 
   268   000FA3                     PIE3            equ	4003	;# 
   269   000FA4                     PIR3            equ	4004	;# 
   270   000FA5                     IPR3            equ	4005	;# 
   271   000FA6                     EECON1          equ	4006	;# 
   272   000FA7                     EECON2          equ	4007	;# 
   273   000FAB                     RCSTA1          equ	4011	;# 
   274   000FAB                     RCSTA           equ	4011	;# 
   275   000FAC                     TXSTA1          equ	4012	;# 
   276   000FAC                     TXSTA           equ	4012	;# 
   277   000FAD                     TXREG1          equ	4013	;# 
   278   000FAD                     TXREG           equ	4013	;# 
   279   000FAE                     RCREG1          equ	4014	;# 
   280   000FAE                     RCREG           equ	4014	;# 
   281   000FAF                     SPBRG1          equ	4015	;# 
   282   000FAF                     SPBRG           equ	4015	;# 
   283   000FB1                     T3CON           equ	4017	;# 
   284   000FB2                     TMR3            equ	4018	;# 
   285   000FB2                     TMR3L           equ	4018	;# 
   286   000FB3                     TMR3H           equ	4019	;# 
   287   000FB4                     CMCON           equ	4020	;# 
   288   000FB5                     CVRCON          equ	4021	;# 
   289   000FB6                     ECCP1AS         equ	4022	;# 
   290   000FB7                     CCP3CON         equ	4023	;# 
   291   000FB7                     ECCP3CON        equ	4023	;# 
   292   000FB8                     CCPR3           equ	4024	;# 
   293   000FB8                     CCPR3L          equ	4024	;# 
   294   000FB9                     CCPR3H          equ	4025	;# 
   295   000FBA                     CCP2CON         equ	4026	;# 
   296   000FBA                     ECCP2CON        equ	4026	;# 
   297   000FBB                     CCPR2           equ	4027	;# 
   298   000FBB                     CCPR2L          equ	4027	;# 
   299   000FBC                     CCPR2H          equ	4028	;# 
   300   000FBD                     CCP1CON         equ	4029	;# 
   301   000FBD                     ECCP1CON        equ	4029	;# 
   302   000FBE                     CCPR1           equ	4030	;# 
   303   000FBE                     CCPR1L          equ	4030	;# 
   304   000FBF                     CCPR1H          equ	4031	;# 
   305   000FC0                     ADCON2          equ	4032	;# 
   306   000FC1                     ADCON1          equ	4033	;# 
   307   000FC2                     ADCON0          equ	4034	;# 
   308   000FC3                     ADRES           equ	4035	;# 
   309   000FC3                     ADRESL          equ	4035	;# 
   310   000FC4                     ADRESH          equ	4036	;# 
   311   000FC5                     SSP1CON2        equ	4037	;# 
   312   000FC5                     SSPCON2         equ	4037	;# 
   313   000FC6                     SSP1CON1        equ	4038	;# 
   314   000FC6                     SSPCON1         equ	4038	;# 
   315   000FC7                     SSP1STAT        equ	4039	;# 
   316   000FC7                     SSPSTAT         equ	4039	;# 
   317   000FC8                     SSP1ADD         equ	4040	;# 
   318   000FC8                     SSPADD          equ	4040	;# 
   319   000FC9                     SSP1BUF         equ	4041	;# 
   320   000FC9                     SSPBUF          equ	4041	;# 
   321   000FCA                     T2CON           equ	4042	;# 
   322   000FCB                     PR2             equ	4043	;# 
   323   000FCB                     MEMCON          equ	4043	;# 
   324   000FCC                     TMR2            equ	4044	;# 
   325   000FCD                     T1CON           equ	4045	;# 
   326   000FCE                     TMR1            equ	4046	;# 
   327   000FCE                     TMR1L           equ	4046	;# 
   328   000FCF                     TMR1H           equ	4047	;# 
   329   000FD0                     RCON            equ	4048	;# 
   330   000FD1                     WDTCON          equ	4049	;# 
   331   000FD2                     ECON1           equ	4050	;# 
   332   000FD3                     OSCCON          equ	4051	;# 
   333   000FD5                     T0CON           equ	4053	;# 
   334   000FD6                     TMR0            equ	4054	;# 
   335   000FD6                     TMR0L           equ	4054	;# 
   336   000FD7                     TMR0H           equ	4055	;# 
   337   000FD8                     STATUS          equ	4056	;# 
   338   000FD9                     FSR2            equ	4057	;# 
   339   000FD9                     FSR2L           equ	4057	;# 
   340   000FDA                     FSR2H           equ	4058	;# 
   341   000FDB                     PLUSW2          equ	4059	;# 
   342   000FDC                     PREINC2         equ	4060	;# 
   343   000FDD                     POSTDEC2        equ	4061	;# 
   344   000FDE                     POSTINC2        equ	4062	;# 
   345   000FDF                     INDF2           equ	4063	;# 
   346   000FE0                     BSR             equ	4064	;# 
   347   000FE1                     FSR1            equ	4065	;# 
   348   000FE1                     FSR1L           equ	4065	;# 
   349   000FE2                     FSR1H           equ	4066	;# 
   350   000FE3                     PLUSW1          equ	4067	;# 
   351   000FE4                     PREINC1         equ	4068	;# 
   352   000FE5                     POSTDEC1        equ	4069	;# 
   353   000FE6                     POSTINC1        equ	4070	;# 
   354   000FE7                     INDF1           equ	4071	;# 
   355   000FE8                     WREG            equ	4072	;# 
   356   000FE9                     FSR0            equ	4073	;# 
   357   000FE9                     FSR0L           equ	4073	;# 
   358   000FEA                     FSR0H           equ	4074	;# 
   359   000FEB                     PLUSW0          equ	4075	;# 
   360   000FEC                     PREINC0         equ	4076	;# 
   361   000FED                     POSTDEC0        equ	4077	;# 
   362   000FEE                     POSTINC0        equ	4078	;# 
   363   000FEF                     INDF0           equ	4079	;# 
   364   000FF0                     INTCON3         equ	4080	;# 
   365   000FF1                     INTCON2         equ	4081	;# 
   366   000FF2                     INTCON          equ	4082	;# 
   367   000FF3                     PROD            equ	4083	;# 
   368   000FF3                     PRODL           equ	4083	;# 
   369   000FF4                     PRODH           equ	4084	;# 
   370   000FF5                     TABLAT          equ	4085	;# 
   371   000FF6                     TBLPTR          equ	4086	;# 
   372   000FF6                     TBLPTRL         equ	4086	;# 
   373   000FF7                     TBLPTRH         equ	4087	;# 
   374   000FF8                     TBLPTRU         equ	4088	;# 
   375   000FF9                     PCLAT           equ	4089	;# 
   376   000FF9                     PC              equ	4089	;# 
   377   000FF9                     PCL             equ	4089	;# 
   378   000FFA                     PCLATH          equ	4090	;# 
   379   000FFB                     PCLATU          equ	4091	;# 
   380   000FFC                     STKPTR          equ	4092	;# 
   381   000FFD                     TOS             equ	4093	;# 
   382   000FFD                     TOSL            equ	4093	;# 
   383   000FFE                     TOSH            equ	4094	;# 
   384   000FFF                     TOSU            equ	4095	;# 
   385   000E80                     MAADR5          equ	3712	;# 
   386   000E81                     MAADR6          equ	3713	;# 
   387   000E82                     MAADR3          equ	3714	;# 
   388   000E83                     MAADR4          equ	3715	;# 
   389   000E84                     MAADR1          equ	3716	;# 
   390   000E85                     MAADR2          equ	3717	;# 
   391   000E8A                     MISTAT          equ	3722	;# 
   392   000E97                     EFLOCON         equ	3735	;# 
   393   000E98                     EPAUS           equ	3736	;# 
   394   000E98                     EPAUSL          equ	3736	;# 
   395   000E99                     EPAUSH          equ	3737	;# 
   396   000EA0                     MACON1          equ	3744	;# 
   397   000EA2                     MACON3          equ	3746	;# 
   398   000EA3                     MACON4          equ	3747	;# 
   399   000EA4                     MABBIPG         equ	3748	;# 
   400   000EA6                     MAIPG           equ	3750	;# 
   401   000EA6                     MAIPGL          equ	3750	;# 
   402   000EA7                     MAIPGH          equ	3751	;# 
   403   000EAA                     MAMXFL          equ	3754	;# 
   404   000EAA                     MAMXFLL         equ	3754	;# 
   405   000EAB                     MAMXFLH         equ	3755	;# 
   406   000EB2                     MICMD           equ	3762	;# 
   407   000EB4                     MIREGADR        equ	3764	;# 
   408   000EB6                     MIWR            equ	3766	;# 
   409   000EB6                     MIWRL           equ	3766	;# 
   410   000EB7                     MIWRH           equ	3767	;# 
   411   000EB8                     MIRD            equ	3768	;# 
   412   000EB8                     MIRDL           equ	3768	;# 
   413   000EB9                     MIRDH           equ	3769	;# 
   414   000EC0                     EHT0            equ	3776	;# 
   415   000EC1                     EHT1            equ	3777	;# 
   416   000EC2                     EHT2            equ	3778	;# 
   417   000EC3                     EHT3            equ	3779	;# 
   418   000EC4                     EHT4            equ	3780	;# 
   419   000EC5                     EHT5            equ	3781	;# 
   420   000EC6                     EHT6            equ	3782	;# 
   421   000EC7                     EHT7            equ	3783	;# 
   422   000EC8                     EPMM0           equ	3784	;# 
   423   000EC9                     EPMM1           equ	3785	;# 
   424   000ECA                     EPMM2           equ	3786	;# 
   425   000ECB                     EPMM3           equ	3787	;# 
   426   000ECC                     EPMM4           equ	3788	;# 
   427   000ECD                     EPMM5           equ	3789	;# 
   428   000ECE                     EPMM6           equ	3790	;# 
   429   000ECF                     EPMM7           equ	3791	;# 
   430   000ED0                     EPMCS           equ	3792	;# 
   431   000ED0                     EPMCSL          equ	3792	;# 
   432   000ED1                     EPMCSH          equ	3793	;# 
   433   000ED4                     EPMO            equ	3796	;# 
   434   000ED4                     EPMOL           equ	3796	;# 
   435   000ED5                     EPMOH           equ	3797	;# 
   436   000ED8                     ERXFCON         equ	3800	;# 
   437   000ED9                     EPKTCNT         equ	3801	;# 
   438   000EE2                     EWRPT           equ	3810	;# 
   439   000EE2                     EWRPTL          equ	3810	;# 
   440   000EE3                     EWRPTH          equ	3811	;# 
   441   000EE4                     ETXST           equ	3812	;# 
   442   000EE4                     ETXSTL          equ	3812	;# 
   443   000EE5                     ETXSTH          equ	3813	;# 
   444   000EE6                     ETXND           equ	3814	;# 
   445   000EE6                     ETXNDL          equ	3814	;# 
   446   000EE7                     ETXNDH          equ	3815	;# 
   447   000EE8                     ERXST           equ	3816	;# 
   448   000EE8                     ERXSTL          equ	3816	;# 
   449   000EE9                     ERXSTH          equ	3817	;# 
   450   000EEA                     ERXND           equ	3818	;# 
   451   000EEA                     ERXNDL          equ	3818	;# 
   452   000EEB                     ERXNDH          equ	3819	;# 
   453   000EEC                     ERXRDPT         equ	3820	;# 
   454   000EEC                     ERXRDPTL        equ	3820	;# 
   455   000EED                     ERXRDPTH        equ	3821	;# 
   456   000EEE                     ERXWRPT         equ	3822	;# 
   457   000EEE                     ERXWRPTL        equ	3822	;# 
   458   000EEF                     ERXWRPTH        equ	3823	;# 
   459   000EF0                     EDMAST          equ	3824	;# 
   460   000EF0                     EDMASTL         equ	3824	;# 
   461   000EF1                     EDMASTH         equ	3825	;# 
   462   000EF2                     EDMAND          equ	3826	;# 
   463   000EF2                     EDMANDL         equ	3826	;# 
   464   000EF3                     EDMANDH         equ	3827	;# 
   465   000EF4                     EDMADST         equ	3828	;# 
   466   000EF4                     EDMADSTL        equ	3828	;# 
   467   000EF5                     EDMADSTH        equ	3829	;# 
   468   000EF6                     EDMACS          equ	3830	;# 
   469   000EF6                     EDMACSL         equ	3830	;# 
   470   000EF7                     EDMACSH         equ	3831	;# 
   471   000EFB                     EIE             equ	3835	;# 
   472   000EFD                     ESTAT           equ	3837	;# 
   473   000EFE                     ECON2           equ	3838	;# 
   474   000F60                     EIR             equ	3936	;# 
   475   000F61                     EDATA           equ	3937	;# 
   476   000F67                     ECCP2DEL        equ	3943	;# 
   477   000F68                     ECCP2AS         equ	3944	;# 
   478   000F69                     ECCP3DEL        equ	3945	;# 
   479   000F6A                     ECCP3AS         equ	3946	;# 
   480   000F70                     CCP5CON         equ	3952	;# 
   481   000F71                     CCPR5           equ	3953	;# 
   482   000F71                     CCPR5L          equ	3953	;# 
   483   000F72                     CCPR5H          equ	3954	;# 
   484   000F73                     CCP4CON         equ	3955	;# 
   485   000F74                     CCPR4           equ	3956	;# 
   486   000F74                     CCPR4L          equ	3956	;# 
   487   000F75                     CCPR4H          equ	3957	;# 
   488   000F76                     T4CON           equ	3958	;# 
   489   000F77                     PR4             equ	3959	;# 
   490   000F78                     TMR4            equ	3960	;# 
   491   000F79                     ECCP1DEL        equ	3961	;# 
   492   000F7A                     ERDPT           equ	3962	;# 
   493   000F7A                     ERDPTL          equ	3962	;# 
   494   000F7B                     ERDPTH          equ	3963	;# 
   495   000F7E                     BAUDCON1        equ	3966	;# 
   496   000F7E                     BAUDCON         equ	3966	;# 
   497   000F7E                     BAUDCTL         equ	3966	;# 
   498   000F7E                     BAUDCTL1        equ	3966	;# 
   499   000F7F                     SPBRGH1         equ	3967	;# 
   500   000F7F                     SPBRGH          equ	3967	;# 
   501   000F80                     PORTA           equ	3968	;# 
   502   000F81                     PORTB           equ	3969	;# 
   503   000F82                     PORTC           equ	3970	;# 
   504   000F83                     PORTD           equ	3971	;# 
   505   000F84                     PORTE           equ	3972	;# 
   506   000F85                     PORTF           equ	3973	;# 
   507   000F86                     PORTG           equ	3974	;# 
   508   000F89                     LATA            equ	3977	;# 
   509   000F8A                     LATB            equ	3978	;# 
   510   000F8B                     LATC            equ	3979	;# 
   511   000F8C                     LATD            equ	3980	;# 
   512   000F8D                     LATE            equ	3981	;# 
   513   000F8E                     LATF            equ	3982	;# 
   514   000F8F                     LATG            equ	3983	;# 
   515   000F92                     TRISA           equ	3986	;# 
   516   000F92                     DDRA            equ	3986	;# 
   517   000F93                     TRISB           equ	3987	;# 
   518   000F93                     DDRB            equ	3987	;# 
   519   000F94                     TRISC           equ	3988	;# 
   520   000F94                     DDRC            equ	3988	;# 
   521   000F95                     TRISD           equ	3989	;# 
   522   000F95                     DDRD            equ	3989	;# 
   523   000F96                     TRISE           equ	3990	;# 
   524   000F96                     DDRE            equ	3990	;# 
   525   000F97                     TRISF           equ	3991	;# 
   526   000F97                     DDRF            equ	3991	;# 
   527   000F98                     TRISG           equ	3992	;# 
   528   000F98                     DDRG            equ	3992	;# 
   529   000F9B                     OSCTUNE         equ	3995	;# 
   530   000F9D                     PIE1            equ	3997	;# 
   531   000F9E                     PIR1            equ	3998	;# 
   532   000F9F                     IPR1            equ	3999	;# 
   533   000FA0                     PIE2            equ	4000	;# 
   534   000FA1                     PIR2            equ	4001	;# 
   535   000FA2                     IPR2            equ	4002	;# 
   536   000FA3                     PIE3            equ	4003	;# 
   537   000FA4                     PIR3            equ	4004	;# 
   538   000FA5                     IPR3            equ	4005	;# 
   539   000FA6                     EECON1          equ	4006	;# 
   540   000FA7                     EECON2          equ	4007	;# 
   541   000FAB                     RCSTA1          equ	4011	;# 
   542   000FAB                     RCSTA           equ	4011	;# 
   543   000FAC                     TXSTA1          equ	4012	;# 
   544   000FAC                     TXSTA           equ	4012	;# 
   545   000FAD                     TXREG1          equ	4013	;# 
   546   000FAD                     TXREG           equ	4013	;# 
   547   000FAE                     RCREG1          equ	4014	;# 
   548   000FAE                     RCREG           equ	4014	;# 
   549   000FAF                     SPBRG1          equ	4015	;# 
   550   000FAF                     SPBRG           equ	4015	;# 
   551   000FB1                     T3CON           equ	4017	;# 
   552   000FB2                     TMR3            equ	4018	;# 
   553   000FB2                     TMR3L           equ	4018	;# 
   554   000FB3                     TMR3H           equ	4019	;# 
   555   000FB4                     CMCON           equ	4020	;# 
   556   000FB5                     CVRCON          equ	4021	;# 
   557   000FB6                     ECCP1AS         equ	4022	;# 
   558   000FB7                     CCP3CON         equ	4023	;# 
   559   000FB7                     ECCP3CON        equ	4023	;# 
   560   000FB8                     CCPR3           equ	4024	;# 
   561   000FB8                     CCPR3L          equ	4024	;# 
   562   000FB9                     CCPR3H          equ	4025	;# 
   563   000FBA                     CCP2CON         equ	4026	;# 
   564   000FBA                     ECCP2CON        equ	4026	;# 
   565   000FBB                     CCPR2           equ	4027	;# 
   566   000FBB                     CCPR2L          equ	4027	;# 
   567   000FBC                     CCPR2H          equ	4028	;# 
   568   000FBD                     CCP1CON         equ	4029	;# 
   569   000FBD                     ECCP1CON        equ	4029	;# 
   570   000FBE                     CCPR1           equ	4030	;# 
   571   000FBE                     CCPR1L          equ	4030	;# 
   572   000FBF                     CCPR1H          equ	4031	;# 
   573   000FC0                     ADCON2          equ	4032	;# 
   574   000FC1                     ADCON1          equ	4033	;# 
   575   000FC2                     ADCON0          equ	4034	;# 
   576   000FC3                     ADRES           equ	4035	;# 
   577   000FC3                     ADRESL          equ	4035	;# 
   578   000FC4                     ADRESH          equ	4036	;# 
   579   000FC5                     SSP1CON2        equ	4037	;# 
   580   000FC5                     SSPCON2         equ	4037	;# 
   581   000FC6                     SSP1CON1        equ	4038	;# 
   582   000FC6                     SSPCON1         equ	4038	;# 
   583   000FC7                     SSP1STAT        equ	4039	;# 
   584   000FC7                     SSPSTAT         equ	4039	;# 
   585   000FC8                     SSP1ADD         equ	4040	;# 
   586   000FC8                     SSPADD          equ	4040	;# 
   587   000FC9                     SSP1BUF         equ	4041	;# 
   588   000FC9                     SSPBUF          equ	4041	;# 
   589   000FCA                     T2CON           equ	4042	;# 
   590   000FCB                     PR2             equ	4043	;# 
   591   000FCB                     MEMCON          equ	4043	;# 
   592   000FCC                     TMR2            equ	4044	;# 
   593   000FCD                     T1CON           equ	4045	;# 
   594   000FCE                     TMR1            equ	4046	;# 
   595   000FCE                     TMR1L           equ	4046	;# 
   596   000FCF                     TMR1H           equ	4047	;# 
   597   000FD0                     RCON            equ	4048	;# 
   598   000FD1                     WDTCON          equ	4049	;# 
   599   000FD2                     ECON1           equ	4050	;# 
   600   000FD3                     OSCCON          equ	4051	;# 
   601   000FD5                     T0CON           equ	4053	;# 
   602   000FD6                     TMR0            equ	4054	;# 
   603   000FD6                     TMR0L           equ	4054	;# 
   604   000FD7                     TMR0H           equ	4055	;# 
   605   000FD8                     STATUS          equ	4056	;# 
   606   000FD9                     FSR2            equ	4057	;# 
   607   000FD9                     FSR2L           equ	4057	;# 
   608   000FDA                     FSR2H           equ	4058	;# 
   609   000FDB                     PLUSW2          equ	4059	;# 
   610   000FDC                     PREINC2         equ	4060	;# 
   611   000FDD                     POSTDEC2        equ	4061	;# 
   612   000FDE                     POSTINC2        equ	4062	;# 
   613   000FDF                     INDF2           equ	4063	;# 
   614   000FE0                     BSR             equ	4064	;# 
   615   000FE1                     FSR1            equ	4065	;# 
   616   000FE1                     FSR1L           equ	4065	;# 
   617   000FE2                     FSR1H           equ	4066	;# 
   618   000FE3                     PLUSW1          equ	4067	;# 
   619   000FE4                     PREINC1         equ	4068	;# 
   620   000FE5                     POSTDEC1        equ	4069	;# 
   621   000FE6                     POSTINC1        equ	4070	;# 
   622   000FE7                     INDF1           equ	4071	;# 
   623   000FE8                     WREG            equ	4072	;# 
   624   000FE9                     FSR0            equ	4073	;# 
   625   000FE9                     FSR0L           equ	4073	;# 
   626   000FEA                     FSR0H           equ	4074	;# 
   627   000FEB                     PLUSW0          equ	4075	;# 
   628   000FEC                     PREINC0         equ	4076	;# 
   629   000FED                     POSTDEC0        equ	4077	;# 
   630   000FEE                     POSTINC0        equ	4078	;# 
   631   000FEF                     INDF0           equ	4079	;# 
   632   000FF0                     INTCON3         equ	4080	;# 
   633   000FF1                     INTCON2         equ	4081	;# 
   634   000FF2                     INTCON          equ	4082	;# 
   635   000FF3                     PROD            equ	4083	;# 
   636   000FF3                     PRODL           equ	4083	;# 
   637   000FF4                     PRODH           equ	4084	;# 
   638   000FF5                     TABLAT          equ	4085	;# 
   639   000FF6                     TBLPTR          equ	4086	;# 
   640   000FF6                     TBLPTRL         equ	4086	;# 
   641   000FF7                     TBLPTRH         equ	4087	;# 
   642   000FF8                     TBLPTRU         equ	4088	;# 
   643   000FF9                     PCLAT           equ	4089	;# 
   644   000FF9                     PC              equ	4089	;# 
   645   000FF9                     PCL             equ	4089	;# 
   646   000FFA                     PCLATH          equ	4090	;# 
   647   000FFB                     PCLATU          equ	4091	;# 
   648   000FFC                     STKPTR          equ	4092	;# 
   649   000FFD                     TOS             equ	4093	;# 
   650   000FFD                     TOSL            equ	4093	;# 
   651   000FFE                     TOSH            equ	4094	;# 
   652   000FFF                     TOSU            equ	4095	;# 
   653   000E80                     MAADR5          equ	3712	;# 
   654   000E81                     MAADR6          equ	3713	;# 
   655   000E82                     MAADR3          equ	3714	;# 
   656   000E83                     MAADR4          equ	3715	;# 
   657   000E84                     MAADR1          equ	3716	;# 
   658   000E85                     MAADR2          equ	3717	;# 
   659   000E8A                     MISTAT          equ	3722	;# 
   660   000E97                     EFLOCON         equ	3735	;# 
   661   000E98                     EPAUS           equ	3736	;# 
   662   000E98                     EPAUSL          equ	3736	;# 
   663   000E99                     EPAUSH          equ	3737	;# 
   664   000EA0                     MACON1          equ	3744	;# 
   665   000EA2                     MACON3          equ	3746	;# 
   666   000EA3                     MACON4          equ	3747	;# 
   667   000EA4                     MABBIPG         equ	3748	;# 
   668   000EA6                     MAIPG           equ	3750	;# 
   669   000EA6                     MAIPGL          equ	3750	;# 
   670   000EA7                     MAIPGH          equ	3751	;# 
   671   000EAA                     MAMXFL          equ	3754	;# 
   672   000EAA                     MAMXFLL         equ	3754	;# 
   673   000EAB                     MAMXFLH         equ	3755	;# 
   674   000EB2                     MICMD           equ	3762	;# 
   675   000EB4                     MIREGADR        equ	3764	;# 
   676   000EB6                     MIWR            equ	3766	;# 
   677   000EB6                     MIWRL           equ	3766	;# 
   678   000EB7                     MIWRH           equ	3767	;# 
   679   000EB8                     MIRD            equ	3768	;# 
   680   000EB8                     MIRDL           equ	3768	;# 
   681   000EB9                     MIRDH           equ	3769	;# 
   682   000EC0                     EHT0            equ	3776	;# 
   683   000EC1                     EHT1            equ	3777	;# 
   684   000EC2                     EHT2            equ	3778	;# 
   685   000EC3                     EHT3            equ	3779	;# 
   686   000EC4                     EHT4            equ	3780	;# 
   687   000EC5                     EHT5            equ	3781	;# 
   688   000EC6                     EHT6            equ	3782	;# 
   689   000EC7                     EHT7            equ	3783	;# 
   690   000EC8                     EPMM0           equ	3784	;# 
   691   000EC9                     EPMM1           equ	3785	;# 
   692   000ECA                     EPMM2           equ	3786	;# 
   693   000ECB                     EPMM3           equ	3787	;# 
   694   000ECC                     EPMM4           equ	3788	;# 
   695   000ECD                     EPMM5           equ	3789	;# 
   696   000ECE                     EPMM6           equ	3790	;# 
   697   000ECF                     EPMM7           equ	3791	;# 
   698   000ED0                     EPMCS           equ	3792	;# 
   699   000ED0                     EPMCSL          equ	3792	;# 
   700   000ED1                     EPMCSH          equ	3793	;# 
   701   000ED4                     EPMO            equ	3796	;# 
   702   000ED4                     EPMOL           equ	3796	;# 
   703   000ED5                     EPMOH           equ	3797	;# 
   704   000ED8                     ERXFCON         equ	3800	;# 
   705   000ED9                     EPKTCNT         equ	3801	;# 
   706   000EE2                     EWRPT           equ	3810	;# 
   707   000EE2                     EWRPTL          equ	3810	;# 
   708   000EE3                     EWRPTH          equ	3811	;# 
   709   000EE4                     ETXST           equ	3812	;# 
   710   000EE4                     ETXSTL          equ	3812	;# 
   711   000EE5                     ETXSTH          equ	3813	;# 
   712   000EE6                     ETXND           equ	3814	;# 
   713   000EE6                     ETXNDL          equ	3814	;# 
   714   000EE7                     ETXNDH          equ	3815	;# 
   715   000EE8                     ERXST           equ	3816	;# 
   716   000EE8                     ERXSTL          equ	3816	;# 
   717   000EE9                     ERXSTH          equ	3817	;# 
   718   000EEA                     ERXND           equ	3818	;# 
   719   000EEA                     ERXNDL          equ	3818	;# 
   720   000EEB                     ERXNDH          equ	3819	;# 
   721   000EEC                     ERXRDPT         equ	3820	;# 
   722   000EEC                     ERXRDPTL        equ	3820	;# 
   723   000EED                     ERXRDPTH        equ	3821	;# 
   724   000EEE                     ERXWRPT         equ	3822	;# 
   725   000EEE                     ERXWRPTL        equ	3822	;# 
   726   000EEF                     ERXWRPTH        equ	3823	;# 
   727   000EF0                     EDMAST          equ	3824	;# 
   728   000EF0                     EDMASTL         equ	3824	;# 
   729   000EF1                     EDMASTH         equ	3825	;# 
   730   000EF2                     EDMAND          equ	3826	;# 
   731   000EF2                     EDMANDL         equ	3826	;# 
   732   000EF3                     EDMANDH         equ	3827	;# 
   733   000EF4                     EDMADST         equ	3828	;# 
   734   000EF4                     EDMADSTL        equ	3828	;# 
   735   000EF5                     EDMADSTH        equ	3829	;# 
   736   000EF6                     EDMACS          equ	3830	;# 
   737   000EF6                     EDMACSL         equ	3830	;# 
   738   000EF7                     EDMACSH         equ	3831	;# 
   739   000EFB                     EIE             equ	3835	;# 
   740   000EFD                     ESTAT           equ	3837	;# 
   741   000EFE                     ECON2           equ	3838	;# 
   742   000F60                     EIR             equ	3936	;# 
   743   000F61                     EDATA           equ	3937	;# 
   744   000F67                     ECCP2DEL        equ	3943	;# 
   745   000F68                     ECCP2AS         equ	3944	;# 
   746   000F69                     ECCP3DEL        equ	3945	;# 
   747   000F6A                     ECCP3AS         equ	3946	;# 
   748   000F70                     CCP5CON         equ	3952	;# 
   749   000F71                     CCPR5           equ	3953	;# 
   750   000F71                     CCPR5L          equ	3953	;# 
   751   000F72                     CCPR5H          equ	3954	;# 
   752   000F73                     CCP4CON         equ	3955	;# 
   753   000F74                     CCPR4           equ	3956	;# 
   754   000F74                     CCPR4L          equ	3956	;# 
   755   000F75                     CCPR4H          equ	3957	;# 
   756   000F76                     T4CON           equ	3958	;# 
   757   000F77                     PR4             equ	3959	;# 
   758   000F78                     TMR4            equ	3960	;# 
   759   000F79                     ECCP1DEL        equ	3961	;# 
   760   000F7A                     ERDPT           equ	3962	;# 
   761   000F7A                     ERDPTL          equ	3962	;# 
   762   000F7B                     ERDPTH          equ	3963	;# 
   763   000F7E                     BAUDCON1        equ	3966	;# 
   764   000F7E                     BAUDCON         equ	3966	;# 
   765   000F7E                     BAUDCTL         equ	3966	;# 
   766   000F7E                     BAUDCTL1        equ	3966	;# 
   767   000F7F                     SPBRGH1         equ	3967	;# 
   768   000F7F                     SPBRGH          equ	3967	;# 
   769   000F80                     PORTA           equ	3968	;# 
   770   000F81                     PORTB           equ	3969	;# 
   771   000F82                     PORTC           equ	3970	;# 
   772   000F83                     PORTD           equ	3971	;# 
   773   000F84                     PORTE           equ	3972	;# 
   774   000F85                     PORTF           equ	3973	;# 
   775   000F86                     PORTG           equ	3974	;# 
   776   000F89                     LATA            equ	3977	;# 
   777   000F8A                     LATB            equ	3978	;# 
   778   000F8B                     LATC            equ	3979	;# 
   779   000F8C                     LATD            equ	3980	;# 
   780   000F8D                     LATE            equ	3981	;# 
   781   000F8E                     LATF            equ	3982	;# 
   782   000F8F                     LATG            equ	3983	;# 
   783   000F92                     TRISA           equ	3986	;# 
   784   000F92                     DDRA            equ	3986	;# 
   785   000F93                     TRISB           equ	3987	;# 
   786   000F93                     DDRB            equ	3987	;# 
   787   000F94                     TRISC           equ	3988	;# 
   788   000F94                     DDRC            equ	3988	;# 
   789   000F95                     TRISD           equ	3989	;# 
   790   000F95                     DDRD            equ	3989	;# 
   791   000F96                     TRISE           equ	3990	;# 
   792   000F96                     DDRE            equ	3990	;# 
   793   000F97                     TRISF           equ	3991	;# 
   794   000F97                     DDRF            equ	3991	;# 
   795   000F98                     TRISG           equ	3992	;# 
   796   000F98                     DDRG            equ	3992	;# 
   797   000F9B                     OSCTUNE         equ	3995	;# 
   798   000F9D                     PIE1            equ	3997	;# 
   799   000F9E                     PIR1            equ	3998	;# 
   800   000F9F                     IPR1            equ	3999	;# 
   801   000FA0                     PIE2            equ	4000	;# 
   802   000FA1                     PIR2            equ	4001	;# 
   803   000FA2                     IPR2            equ	4002	;# 
   804   000FA3                     PIE3            equ	4003	;# 
   805   000FA4                     PIR3            equ	4004	;# 
   806   000FA5                     IPR3            equ	4005	;# 
   807   000FA6                     EECON1          equ	4006	;# 
   808   000FA7                     EECON2          equ	4007	;# 
   809   000FAB                     RCSTA1          equ	4011	;# 
   810   000FAB                     RCSTA           equ	4011	;# 
   811   000FAC                     TXSTA1          equ	4012	;# 
   812   000FAC                     TXSTA           equ	4012	;# 
   813   000FAD                     TXREG1          equ	4013	;# 
   814   000FAD                     TXREG           equ	4013	;# 
   815   000FAE                     RCREG1          equ	4014	;# 
   816   000FAE                     RCREG           equ	4014	;# 
   817   000FAF                     SPBRG1          equ	4015	;# 
   818   000FAF                     SPBRG           equ	4015	;# 
   819   000FB1                     T3CON           equ	4017	;# 
   820   000FB2                     TMR3            equ	4018	;# 
   821   000FB2                     TMR3L           equ	4018	;# 
   822   000FB3                     TMR3H           equ	4019	;# 
   823   000FB4                     CMCON           equ	4020	;# 
   824   000FB5                     CVRCON          equ	4021	;# 
   825   000FB6                     ECCP1AS         equ	4022	;# 
   826   000FB7                     CCP3CON         equ	4023	;# 
   827   000FB7                     ECCP3CON        equ	4023	;# 
   828   000FB8                     CCPR3           equ	4024	;# 
   829   000FB8                     CCPR3L          equ	4024	;# 
   830   000FB9                     CCPR3H          equ	4025	;# 
   831   000FBA                     CCP2CON         equ	4026	;# 
   832   000FBA                     ECCP2CON        equ	4026	;# 
   833   000FBB                     CCPR2           equ	4027	;# 
   834   000FBB                     CCPR2L          equ	4027	;# 
   835   000FBC                     CCPR2H          equ	4028	;# 
   836   000FBD                     CCP1CON         equ	4029	;# 
   837   000FBD                     ECCP1CON        equ	4029	;# 
   838   000FBE                     CCPR1           equ	4030	;# 
   839   000FBE                     CCPR1L          equ	4030	;# 
   840   000FBF                     CCPR1H          equ	4031	;# 
   841   000FC0                     ADCON2          equ	4032	;# 
   842   000FC1                     ADCON1          equ	4033	;# 
   843   000FC2                     ADCON0          equ	4034	;# 
   844   000FC3                     ADRES           equ	4035	;# 
   845   000FC3                     ADRESL          equ	4035	;# 
   846   000FC4                     ADRESH          equ	4036	;# 
   847   000FC5                     SSP1CON2        equ	4037	;# 
   848   000FC5                     SSPCON2         equ	4037	;# 
   849   000FC6                     SSP1CON1        equ	4038	;# 
   850   000FC6                     SSPCON1         equ	4038	;# 
   851   000FC7                     SSP1STAT        equ	4039	;# 
   852   000FC7                     SSPSTAT         equ	4039	;# 
   853   000FC8                     SSP1ADD         equ	4040	;# 
   854   000FC8                     SSPADD          equ	4040	;# 
   855   000FC9                     SSP1BUF         equ	4041	;# 
   856   000FC9                     SSPBUF          equ	4041	;# 
   857   000FCA                     T2CON           equ	4042	;# 
   858   000FCB                     PR2             equ	4043	;# 
   859   000FCB                     MEMCON          equ	4043	;# 
   860   000FCC                     TMR2            equ	4044	;# 
   861   000FCD                     T1CON           equ	4045	;# 
   862   000FCE                     TMR1            equ	4046	;# 
   863   000FCE                     TMR1L           equ	4046	;# 
   864   000FCF                     TMR1H           equ	4047	;# 
   865   000FD0                     RCON            equ	4048	;# 
   866   000FD1                     WDTCON          equ	4049	;# 
   867   000FD2                     ECON1           equ	4050	;# 
   868   000FD3                     OSCCON          equ	4051	;# 
   869   000FD5                     T0CON           equ	4053	;# 
   870   000FD6                     TMR0            equ	4054	;# 
   871   000FD6                     TMR0L           equ	4054	;# 
   872   000FD7                     TMR0H           equ	4055	;# 
   873   000FD8                     STATUS          equ	4056	;# 
   874   000FD9                     FSR2            equ	4057	;# 
   875   000FD9                     FSR2L           equ	4057	;# 
   876   000FDA                     FSR2H           equ	4058	;# 
   877   000FDB                     PLUSW2          equ	4059	;# 
   878   000FDC                     PREINC2         equ	4060	;# 
   879   000FDD                     POSTDEC2        equ	4061	;# 
   880   000FDE                     POSTINC2        equ	4062	;# 
   881   000FDF                     INDF2           equ	4063	;# 
   882   000FE0                     BSR             equ	4064	;# 
   883   000FE1                     FSR1            equ	4065	;# 
   884   000FE1                     FSR1L           equ	4065	;# 
   885   000FE2                     FSR1H           equ	4066	;# 
   886   000FE3                     PLUSW1          equ	4067	;# 
   887   000FE4                     PREINC1         equ	4068	;# 
   888   000FE5                     POSTDEC1        equ	4069	;# 
   889   000FE6                     POSTINC1        equ	4070	;# 
   890   000FE7                     INDF1           equ	4071	;# 
   891   000FE8                     WREG            equ	4072	;# 
   892   000FE9                     FSR0            equ	4073	;# 
   893   000FE9                     FSR0L           equ	4073	;# 
   894   000FEA                     FSR0H           equ	4074	;# 
   895   000FEB                     PLUSW0          equ	4075	;# 
   896   000FEC                     PREINC0         equ	4076	;# 
   897   000FED                     POSTDEC0        equ	4077	;# 
   898   000FEE                     POSTINC0        equ	4078	;# 
   899   000FEF                     INDF0           equ	4079	;# 
   900   000FF0                     INTCON3         equ	4080	;# 
   901   000FF1                     INTCON2         equ	4081	;# 
   902   000FF2                     INTCON          equ	4082	;# 
   903   000FF3                     PROD            equ	4083	;# 
   904   000FF3                     PRODL           equ	4083	;# 
   905   000FF4                     PRODH           equ	4084	;# 
   906   000FF5                     TABLAT          equ	4085	;# 
   907   000FF6                     TBLPTR          equ	4086	;# 
   908   000FF6                     TBLPTRL         equ	4086	;# 
   909   000FF7                     TBLPTRH         equ	4087	;# 
   910   000FF8                     TBLPTRU         equ	4088	;# 
   911   000FF9                     PCLAT           equ	4089	;# 
   912   000FF9                     PC              equ	4089	;# 
   913   000FF9                     PCL             equ	4089	;# 
   914   000FFA                     PCLATH          equ	4090	;# 
   915   000FFB                     PCLATU          equ	4091	;# 
   916   000FFC                     STKPTR          equ	4092	;# 
   917   000FFD                     TOS             equ	4093	;# 
   918   000FFD                     TOSL            equ	4093	;# 
   919   000FFE                     TOSH            equ	4094	;# 
   920   000FFF                     TOSU            equ	4095	;# 
   921   000E80                     MAADR5          equ	3712	;# 
   922   000E81                     MAADR6          equ	3713	;# 
   923   000E82                     MAADR3          equ	3714	;# 
   924   000E83                     MAADR4          equ	3715	;# 
   925   000E84                     MAADR1          equ	3716	;# 
   926   000E85                     MAADR2          equ	3717	;# 
   927   000E8A                     MISTAT          equ	3722	;# 
   928   000E97                     EFLOCON         equ	3735	;# 
   929   000E98                     EPAUS           equ	3736	;# 
   930   000E98                     EPAUSL          equ	3736	;# 
   931   000E99                     EPAUSH          equ	3737	;# 
   932   000EA0                     MACON1          equ	3744	;# 
   933   000EA2                     MACON3          equ	3746	;# 
   934   000EA3                     MACON4          equ	3747	;# 
   935   000EA4                     MABBIPG         equ	3748	;# 
   936   000EA6                     MAIPG           equ	3750	;# 
   937   000EA6                     MAIPGL          equ	3750	;# 
   938   000EA7                     MAIPGH          equ	3751	;# 
   939   000EAA                     MAMXFL          equ	3754	;# 
   940   000EAA                     MAMXFLL         equ	3754	;# 
   941   000EAB                     MAMXFLH         equ	3755	;# 
   942   000EB2                     MICMD           equ	3762	;# 
   943   000EB4                     MIREGADR        equ	3764	;# 
   944   000EB6                     MIWR            equ	3766	;# 
   945   000EB6                     MIWRL           equ	3766	;# 
   946   000EB7                     MIWRH           equ	3767	;# 
   947   000EB8                     MIRD            equ	3768	;# 
   948   000EB8                     MIRDL           equ	3768	;# 
   949   000EB9                     MIRDH           equ	3769	;# 
   950   000EC0                     EHT0            equ	3776	;# 
   951   000EC1                     EHT1            equ	3777	;# 
   952   000EC2                     EHT2            equ	3778	;# 
   953   000EC3                     EHT3            equ	3779	;# 
   954   000EC4                     EHT4            equ	3780	;# 
   955   000EC5                     EHT5            equ	3781	;# 
   956   000EC6                     EHT6            equ	3782	;# 
   957   000EC7                     EHT7            equ	3783	;# 
   958   000EC8                     EPMM0           equ	3784	;# 
   959   000EC9                     EPMM1           equ	3785	;# 
   960   000ECA                     EPMM2           equ	3786	;# 
   961   000ECB                     EPMM3           equ	3787	;# 
   962   000ECC                     EPMM4           equ	3788	;# 
   963   000ECD                     EPMM5           equ	3789	;# 
   964   000ECE                     EPMM6           equ	3790	;# 
   965   000ECF                     EPMM7           equ	3791	;# 
   966   000ED0                     EPMCS           equ	3792	;# 
   967   000ED0                     EPMCSL          equ	3792	;# 
   968   000ED1                     EPMCSH          equ	3793	;# 
   969   000ED4                     EPMO            equ	3796	;# 
   970   000ED4                     EPMOL           equ	3796	;# 
   971   000ED5                     EPMOH           equ	3797	;# 
   972   000ED8                     ERXFCON         equ	3800	;# 
   973   000ED9                     EPKTCNT         equ	3801	;# 
   974   000EE2                     EWRPT           equ	3810	;# 
   975   000EE2                     EWRPTL          equ	3810	;# 
   976   000EE3                     EWRPTH          equ	3811	;# 
   977   000EE4                     ETXST           equ	3812	;# 
   978   000EE4                     ETXSTL          equ	3812	;# 
   979   000EE5                     ETXSTH          equ	3813	;# 
   980   000EE6                     ETXND           equ	3814	;# 
   981   000EE6                     ETXNDL          equ	3814	;# 
   982   000EE7                     ETXNDH          equ	3815	;# 
   983   000EE8                     ERXST           equ	3816	;# 
   984   000EE8                     ERXSTL          equ	3816	;# 
   985   000EE9                     ERXSTH          equ	3817	;# 
   986   000EEA                     ERXND           equ	3818	;# 
   987   000EEA                     ERXNDL          equ	3818	;# 
   988   000EEB                     ERXNDH          equ	3819	;# 
   989   000EEC                     ERXRDPT         equ	3820	;# 
   990   000EEC                     ERXRDPTL        equ	3820	;# 
   991   000EED                     ERXRDPTH        equ	3821	;# 
   992   000EEE                     ERXWRPT         equ	3822	;# 
   993   000EEE                     ERXWRPTL        equ	3822	;# 
   994   000EEF                     ERXWRPTH        equ	3823	;# 
   995   000EF0                     EDMAST          equ	3824	;# 
   996   000EF0                     EDMASTL         equ	3824	;# 
   997   000EF1                     EDMASTH         equ	3825	;# 
   998   000EF2                     EDMAND          equ	3826	;# 
   999   000EF2                     EDMANDL         equ	3826	;# 
  1000   000EF3                     EDMANDH         equ	3827	;# 
  1001   000EF4                     EDMADST         equ	3828	;# 
  1002   000EF4                     EDMADSTL        equ	3828	;# 
  1003   000EF5                     EDMADSTH        equ	3829	;# 
  1004   000EF6                     EDMACS          equ	3830	;# 
  1005   000EF6                     EDMACSL         equ	3830	;# 
  1006   000EF7                     EDMACSH         equ	3831	;# 
  1007   000EFB                     EIE             equ	3835	;# 
  1008   000EFD                     ESTAT           equ	3837	;# 
  1009   000EFE                     ECON2           equ	3838	;# 
  1010   000F60                     EIR             equ	3936	;# 
  1011   000F61                     EDATA           equ	3937	;# 
  1012   000F67                     ECCP2DEL        equ	3943	;# 
  1013   000F68                     ECCP2AS         equ	3944	;# 
  1014   000F69                     ECCP3DEL        equ	3945	;# 
  1015   000F6A                     ECCP3AS         equ	3946	;# 
  1016   000F70                     CCP5CON         equ	3952	;# 
  1017   000F71                     CCPR5           equ	3953	;# 
  1018   000F71                     CCPR5L          equ	3953	;# 
  1019   000F72                     CCPR5H          equ	3954	;# 
  1020   000F73                     CCP4CON         equ	3955	;# 
  1021   000F74                     CCPR4           equ	3956	;# 
  1022   000F74                     CCPR4L          equ	3956	;# 
  1023   000F75                     CCPR4H          equ	3957	;# 
  1024   000F76                     T4CON           equ	3958	;# 
  1025   000F77                     PR4             equ	3959	;# 
  1026   000F78                     TMR4            equ	3960	;# 
  1027   000F79                     ECCP1DEL        equ	3961	;# 
  1028   000F7A                     ERDPT           equ	3962	;# 
  1029   000F7A                     ERDPTL          equ	3962	;# 
  1030   000F7B                     ERDPTH          equ	3963	;# 
  1031   000F7E                     BAUDCON1        equ	3966	;# 
  1032   000F7E                     BAUDCON         equ	3966	;# 
  1033   000F7E                     BAUDCTL         equ	3966	;# 
  1034   000F7E                     BAUDCTL1        equ	3966	;# 
  1035   000F7F                     SPBRGH1         equ	3967	;# 
  1036   000F7F                     SPBRGH          equ	3967	;# 
  1037   000F80                     PORTA           equ	3968	;# 
  1038   000F81                     PORTB           equ	3969	;# 
  1039   000F82                     PORTC           equ	3970	;# 
  1040   000F83                     PORTD           equ	3971	;# 
  1041   000F84                     PORTE           equ	3972	;# 
  1042   000F85                     PORTF           equ	3973	;# 
  1043   000F86                     PORTG           equ	3974	;# 
  1044   000F89                     LATA            equ	3977	;# 
  1045   000F8A                     LATB            equ	3978	;# 
  1046   000F8B                     LATC            equ	3979	;# 
  1047   000F8C                     LATD            equ	3980	;# 
  1048   000F8D                     LATE            equ	3981	;# 
  1049   000F8E                     LATF            equ	3982	;# 
  1050   000F8F                     LATG            equ	3983	;# 
  1051   000F92                     TRISA           equ	3986	;# 
  1052   000F92                     DDRA            equ	3986	;# 
  1053   000F93                     TRISB           equ	3987	;# 
  1054   000F93                     DDRB            equ	3987	;# 
  1055   000F94                     TRISC           equ	3988	;# 
  1056   000F94                     DDRC            equ	3988	;# 
  1057   000F95                     TRISD           equ	3989	;# 
  1058   000F95                     DDRD            equ	3989	;# 
  1059   000F96                     TRISE           equ	3990	;# 
  1060   000F96                     DDRE            equ	3990	;# 
  1061   000F97                     TRISF           equ	3991	;# 
  1062   000F97                     DDRF            equ	3991	;# 
  1063   000F98                     TRISG           equ	3992	;# 
  1064   000F98                     DDRG            equ	3992	;# 
  1065   000F9B                     OSCTUNE         equ	3995	;# 
  1066   000F9D                     PIE1            equ	3997	;# 
  1067   000F9E                     PIR1            equ	3998	;# 
  1068   000F9F                     IPR1            equ	3999	;# 
  1069   000FA0                     PIE2            equ	4000	;# 
  1070   000FA1                     PIR2            equ	4001	;# 
  1071   000FA2                     IPR2            equ	4002	;# 
  1072   000FA3                     PIE3            equ	4003	;# 
  1073   000FA4                     PIR3            equ	4004	;# 
  1074   000FA5                     IPR3            equ	4005	;# 
  1075   000FA6                     EECON1          equ	4006	;# 
  1076   000FA7                     EECON2          equ	4007	;# 
  1077   000FAB                     RCSTA1          equ	4011	;# 
  1078   000FAB                     RCSTA           equ	4011	;# 
  1079   000FAC                     TXSTA1          equ	4012	;# 
  1080   000FAC                     TXSTA           equ	4012	;# 
  1081   000FAD                     TXREG1          equ	4013	;# 
  1082   000FAD                     TXREG           equ	4013	;# 
  1083   000FAE                     RCREG1          equ	4014	;# 
  1084   000FAE                     RCREG           equ	4014	;# 
  1085   000FAF                     SPBRG1          equ	4015	;# 
  1086   000FAF                     SPBRG           equ	4015	;# 
  1087   000FB1                     T3CON           equ	4017	;# 
  1088   000FB2                     TMR3            equ	4018	;# 
  1089   000FB2                     TMR3L           equ	4018	;# 
  1090   000FB3                     TMR3H           equ	4019	;# 
  1091   000FB4                     CMCON           equ	4020	;# 
  1092   000FB5                     CVRCON          equ	4021	;# 
  1093   000FB6                     ECCP1AS         equ	4022	;# 
  1094   000FB7                     CCP3CON         equ	4023	;# 
  1095   000FB7                     ECCP3CON        equ	4023	;# 
  1096   000FB8                     CCPR3           equ	4024	;# 
  1097   000FB8                     CCPR3L          equ	4024	;# 
  1098   000FB9                     CCPR3H          equ	4025	;# 
  1099   000FBA                     CCP2CON         equ	4026	;# 
  1100   000FBA                     ECCP2CON        equ	4026	;# 
  1101   000FBB                     CCPR2           equ	4027	;# 
  1102   000FBB                     CCPR2L          equ	4027	;# 
  1103   000FBC                     CCPR2H          equ	4028	;# 
  1104   000FBD                     CCP1CON         equ	4029	;# 
  1105   000FBD                     ECCP1CON        equ	4029	;# 
  1106   000FBE                     CCPR1           equ	4030	;# 
  1107   000FBE                     CCPR1L          equ	4030	;# 
  1108   000FBF                     CCPR1H          equ	4031	;# 
  1109   000FC0                     ADCON2          equ	4032	;# 
  1110   000FC1                     ADCON1          equ	4033	;# 
  1111   000FC2                     ADCON0          equ	4034	;# 
  1112   000FC3                     ADRES           equ	4035	;# 
  1113   000FC3                     ADRESL          equ	4035	;# 
  1114   000FC4                     ADRESH          equ	4036	;# 
  1115   000FC5                     SSP1CON2        equ	4037	;# 
  1116   000FC5                     SSPCON2         equ	4037	;# 
  1117   000FC6                     SSP1CON1        equ	4038	;# 
  1118   000FC6                     SSPCON1         equ	4038	;# 
  1119   000FC7                     SSP1STAT        equ	4039	;# 
  1120   000FC7                     SSPSTAT         equ	4039	;# 
  1121   000FC8                     SSP1ADD         equ	4040	;# 
  1122   000FC8                     SSPADD          equ	4040	;# 
  1123   000FC9                     SSP1BUF         equ	4041	;# 
  1124   000FC9                     SSPBUF          equ	4041	;# 
  1125   000FCA                     T2CON           equ	4042	;# 
  1126   000FCB                     PR2             equ	4043	;# 
  1127   000FCB                     MEMCON          equ	4043	;# 
  1128   000FCC                     TMR2            equ	4044	;# 
  1129   000FCD                     T1CON           equ	4045	;# 
  1130   000FCE                     TMR1            equ	4046	;# 
  1131   000FCE                     TMR1L           equ	4046	;# 
  1132   000FCF                     TMR1H           equ	4047	;# 
  1133   000FD0                     RCON            equ	4048	;# 
  1134   000FD1                     WDTCON          equ	4049	;# 
  1135   000FD2                     ECON1           equ	4050	;# 
  1136   000FD3                     OSCCON          equ	4051	;# 
  1137   000FD5                     T0CON           equ	4053	;# 
  1138   000FD6                     TMR0            equ	4054	;# 
  1139   000FD6                     TMR0L           equ	4054	;# 
  1140   000FD7                     TMR0H           equ	4055	;# 
  1141   000FD8                     STATUS          equ	4056	;# 
  1142   000FD9                     FSR2            equ	4057	;# 
  1143   000FD9                     FSR2L           equ	4057	;# 
  1144   000FDA                     FSR2H           equ	4058	;# 
  1145   000FDB                     PLUSW2          equ	4059	;# 
  1146   000FDC                     PREINC2         equ	4060	;# 
  1147   000FDD                     POSTDEC2        equ	4061	;# 
  1148   000FDE                     POSTINC2        equ	4062	;# 
  1149   000FDF                     INDF2           equ	4063	;# 
  1150   000FE0                     BSR             equ	4064	;# 
  1151   000FE1                     FSR1            equ	4065	;# 
  1152   000FE1                     FSR1L           equ	4065	;# 
  1153   000FE2                     FSR1H           equ	4066	;# 
  1154   000FE3                     PLUSW1          equ	4067	;# 
  1155   000FE4                     PREINC1         equ	4068	;# 
  1156   000FE5                     POSTDEC1        equ	4069	;# 
  1157   000FE6                     POSTINC1        equ	4070	;# 
  1158   000FE7                     INDF1           equ	4071	;# 
  1159   000FE8                     WREG            equ	4072	;# 
  1160   000FE9                     FSR0            equ	4073	;# 
  1161   000FE9                     FSR0L           equ	4073	;# 
  1162   000FEA                     FSR0H           equ	4074	;# 
  1163   000FEB                     PLUSW0          equ	4075	;# 
  1164   000FEC                     PREINC0         equ	4076	;# 
  1165   000FED                     POSTDEC0        equ	4077	;# 
  1166   000FEE                     POSTINC0        equ	4078	;# 
  1167   000FEF                     INDF0           equ	4079	;# 
  1168   000FF0                     INTCON3         equ	4080	;# 
  1169   000FF1                     INTCON2         equ	4081	;# 
  1170   000FF2                     INTCON          equ	4082	;# 
  1171   000FF3                     PROD            equ	4083	;# 
  1172   000FF3                     PRODL           equ	4083	;# 
  1173   000FF4                     PRODH           equ	4084	;# 
  1174   000FF5                     TABLAT          equ	4085	;# 
  1175   000FF6                     TBLPTR          equ	4086	;# 
  1176   000FF6                     TBLPTRL         equ	4086	;# 
  1177   000FF7                     TBLPTRH         equ	4087	;# 
  1178   000FF8                     TBLPTRU         equ	4088	;# 
  1179   000FF9                     PCLAT           equ	4089	;# 
  1180   000FF9                     PC              equ	4089	;# 
  1181   000FF9                     PCL             equ	4089	;# 
  1182   000FFA                     PCLATH          equ	4090	;# 
  1183   000FFB                     PCLATU          equ	4091	;# 
  1184   000FFC                     STKPTR          equ	4092	;# 
  1185   000FFD                     TOS             equ	4093	;# 
  1186   000FFD                     TOSL            equ	4093	;# 
  1187   000FFE                     TOSH            equ	4094	;# 
  1188   000FFF                     TOSU            equ	4095	;# 
  1189   000E80                     MAADR5          equ	3712	;# 
  1190   000E81                     MAADR6          equ	3713	;# 
  1191   000E82                     MAADR3          equ	3714	;# 
  1192   000E83                     MAADR4          equ	3715	;# 
  1193   000E84                     MAADR1          equ	3716	;# 
  1194   000E85                     MAADR2          equ	3717	;# 
  1195   000E8A                     MISTAT          equ	3722	;# 
  1196   000E97                     EFLOCON         equ	3735	;# 
  1197   000E98                     EPAUS           equ	3736	;# 
  1198   000E98                     EPAUSL          equ	3736	;# 
  1199   000E99                     EPAUSH          equ	3737	;# 
  1200   000EA0                     MACON1          equ	3744	;# 
  1201   000EA2                     MACON3          equ	3746	;# 
  1202   000EA3                     MACON4          equ	3747	;# 
  1203   000EA4                     MABBIPG         equ	3748	;# 
  1204   000EA6                     MAIPG           equ	3750	;# 
  1205   000EA6                     MAIPGL          equ	3750	;# 
  1206   000EA7                     MAIPGH          equ	3751	;# 
  1207   000EAA                     MAMXFL          equ	3754	;# 
  1208   000EAA                     MAMXFLL         equ	3754	;# 
  1209   000EAB                     MAMXFLH         equ	3755	;# 
  1210   000EB2                     MICMD           equ	3762	;# 
  1211   000EB4                     MIREGADR        equ	3764	;# 
  1212   000EB6                     MIWR            equ	3766	;# 
  1213   000EB6                     MIWRL           equ	3766	;# 
  1214   000EB7                     MIWRH           equ	3767	;# 
  1215   000EB8                     MIRD            equ	3768	;# 
  1216   000EB8                     MIRDL           equ	3768	;# 
  1217   000EB9                     MIRDH           equ	3769	;# 
  1218   000EC0                     EHT0            equ	3776	;# 
  1219   000EC1                     EHT1            equ	3777	;# 
  1220   000EC2                     EHT2            equ	3778	;# 
  1221   000EC3                     EHT3            equ	3779	;# 
  1222   000EC4                     EHT4            equ	3780	;# 
  1223   000EC5                     EHT5            equ	3781	;# 
  1224   000EC6                     EHT6            equ	3782	;# 
  1225   000EC7                     EHT7            equ	3783	;# 
  1226   000EC8                     EPMM0           equ	3784	;# 
  1227   000EC9                     EPMM1           equ	3785	;# 
  1228   000ECA                     EPMM2           equ	3786	;# 
  1229   000ECB                     EPMM3           equ	3787	;# 
  1230   000ECC                     EPMM4           equ	3788	;# 
  1231   000ECD                     EPMM5           equ	3789	;# 
  1232   000ECE                     EPMM6           equ	3790	;# 
  1233   000ECF                     EPMM7           equ	3791	;# 
  1234   000ED0                     EPMCS           equ	3792	;# 
  1235   000ED0                     EPMCSL          equ	3792	;# 
  1236   000ED1                     EPMCSH          equ	3793	;# 
  1237   000ED4                     EPMO            equ	3796	;# 
  1238   000ED4                     EPMOL           equ	3796	;# 
  1239   000ED5                     EPMOH           equ	3797	;# 
  1240   000ED8                     ERXFCON         equ	3800	;# 
  1241   000ED9                     EPKTCNT         equ	3801	;# 
  1242   000EE2                     EWRPT           equ	3810	;# 
  1243   000EE2                     EWRPTL          equ	3810	;# 
  1244   000EE3                     EWRPTH          equ	3811	;# 
  1245   000EE4                     ETXST           equ	3812	;# 
  1246   000EE4                     ETXSTL          equ	3812	;# 
  1247   000EE5                     ETXSTH          equ	3813	;# 
  1248   000EE6                     ETXND           equ	3814	;# 
  1249   000EE6                     ETXNDL          equ	3814	;# 
  1250   000EE7                     ETXNDH          equ	3815	;# 
  1251   000EE8                     ERXST           equ	3816	;# 
  1252   000EE8                     ERXSTL          equ	3816	;# 
  1253   000EE9                     ERXSTH          equ	3817	;# 
  1254   000EEA                     ERXND           equ	3818	;# 
  1255   000EEA                     ERXNDL          equ	3818	;# 
  1256   000EEB                     ERXNDH          equ	3819	;# 
  1257   000EEC                     ERXRDPT         equ	3820	;# 
  1258   000EEC                     ERXRDPTL        equ	3820	;# 
  1259   000EED                     ERXRDPTH        equ	3821	;# 
  1260   000EEE                     ERXWRPT         equ	3822	;# 
  1261   000EEE                     ERXWRPTL        equ	3822	;# 
  1262   000EEF                     ERXWRPTH        equ	3823	;# 
  1263   000EF0                     EDMAST          equ	3824	;# 
  1264   000EF0                     EDMASTL         equ	3824	;# 
  1265   000EF1                     EDMASTH         equ	3825	;# 
  1266   000EF2                     EDMAND          equ	3826	;# 
  1267   000EF2                     EDMANDL         equ	3826	;# 
  1268   000EF3                     EDMANDH         equ	3827	;# 
  1269   000EF4                     EDMADST         equ	3828	;# 
  1270   000EF4                     EDMADSTL        equ	3828	;# 
  1271   000EF5                     EDMADSTH        equ	3829	;# 
  1272   000EF6                     EDMACS          equ	3830	;# 
  1273   000EF6                     EDMACSL         equ	3830	;# 
  1274   000EF7                     EDMACSH         equ	3831	;# 
  1275   000EFB                     EIE             equ	3835	;# 
  1276   000EFD                     ESTAT           equ	3837	;# 
  1277   000EFE                     ECON2           equ	3838	;# 
  1278   000F60                     EIR             equ	3936	;# 
  1279   000F61                     EDATA           equ	3937	;# 
  1280   000F67                     ECCP2DEL        equ	3943	;# 
  1281   000F68                     ECCP2AS         equ	3944	;# 
  1282   000F69                     ECCP3DEL        equ	3945	;# 
  1283   000F6A                     ECCP3AS         equ	3946	;# 
  1284   000F70                     CCP5CON         equ	3952	;# 
  1285   000F71                     CCPR5           equ	3953	;# 
  1286   000F71                     CCPR5L          equ	3953	;# 
  1287   000F72                     CCPR5H          equ	3954	;# 
  1288   000F73                     CCP4CON         equ	3955	;# 
  1289   000F74                     CCPR4           equ	3956	;# 
  1290   000F74                     CCPR4L          equ	3956	;# 
  1291   000F75                     CCPR4H          equ	3957	;# 
  1292   000F76                     T4CON           equ	3958	;# 
  1293   000F77                     PR4             equ	3959	;# 
  1294   000F78                     TMR4            equ	3960	;# 
  1295   000F79                     ECCP1DEL        equ	3961	;# 
  1296   000F7A                     ERDPT           equ	3962	;# 
  1297   000F7A                     ERDPTL          equ	3962	;# 
  1298   000F7B                     ERDPTH          equ	3963	;# 
  1299   000F7E                     BAUDCON1        equ	3966	;# 
  1300   000F7E                     BAUDCON         equ	3966	;# 
  1301   000F7E                     BAUDCTL         equ	3966	;# 
  1302   000F7E                     BAUDCTL1        equ	3966	;# 
  1303   000F7F                     SPBRGH1         equ	3967	;# 
  1304   000F7F                     SPBRGH          equ	3967	;# 
  1305   000F80                     PORTA           equ	3968	;# 
  1306   000F81                     PORTB           equ	3969	;# 
  1307   000F82                     PORTC           equ	3970	;# 
  1308   000F83                     PORTD           equ	3971	;# 
  1309   000F84                     PORTE           equ	3972	;# 
  1310   000F85                     PORTF           equ	3973	;# 
  1311   000F86                     PORTG           equ	3974	;# 
  1312   000F89                     LATA            equ	3977	;# 
  1313   000F8A                     LATB            equ	3978	;# 
  1314   000F8B                     LATC            equ	3979	;# 
  1315   000F8C                     LATD            equ	3980	;# 
  1316   000F8D                     LATE            equ	3981	;# 
  1317   000F8E                     LATF            equ	3982	;# 
  1318   000F8F                     LATG            equ	3983	;# 
  1319   000F92                     TRISA           equ	3986	;# 
  1320   000F92                     DDRA            equ	3986	;# 
  1321   000F93                     TRISB           equ	3987	;# 
  1322   000F93                     DDRB            equ	3987	;# 
  1323   000F94                     TRISC           equ	3988	;# 
  1324   000F94                     DDRC            equ	3988	;# 
  1325   000F95                     TRISD           equ	3989	;# 
  1326   000F95                     DDRD            equ	3989	;# 
  1327   000F96                     TRISE           equ	3990	;# 
  1328   000F96                     DDRE            equ	3990	;# 
  1329   000F97                     TRISF           equ	3991	;# 
  1330   000F97                     DDRF            equ	3991	;# 
  1331   000F98                     TRISG           equ	3992	;# 
  1332   000F98                     DDRG            equ	3992	;# 
  1333   000F9B                     OSCTUNE         equ	3995	;# 
  1334   000F9D                     PIE1            equ	3997	;# 
  1335   000F9E                     PIR1            equ	3998	;# 
  1336   000F9F                     IPR1            equ	3999	;# 
  1337   000FA0                     PIE2            equ	4000	;# 
  1338   000FA1                     PIR2            equ	4001	;# 
  1339   000FA2                     IPR2            equ	4002	;# 
  1340   000FA3                     PIE3            equ	4003	;# 
  1341   000FA4                     PIR3            equ	4004	;# 
  1342   000FA5                     IPR3            equ	4005	;# 
  1343   000FA6                     EECON1          equ	4006	;# 
  1344   000FA7                     EECON2          equ	4007	;# 
  1345   000FAB                     RCSTA1          equ	4011	;# 
  1346   000FAB                     RCSTA           equ	4011	;# 
  1347   000FAC                     TXSTA1          equ	4012	;# 
  1348   000FAC                     TXSTA           equ	4012	;# 
  1349   000FAD                     TXREG1          equ	4013	;# 
  1350   000FAD                     TXREG           equ	4013	;# 
  1351   000FAE                     RCREG1          equ	4014	;# 
  1352   000FAE                     RCREG           equ	4014	;# 
  1353   000FAF                     SPBRG1          equ	4015	;# 
  1354   000FAF                     SPBRG           equ	4015	;# 
  1355   000FB1                     T3CON           equ	4017	;# 
  1356   000FB2                     TMR3            equ	4018	;# 
  1357   000FB2                     TMR3L           equ	4018	;# 
  1358   000FB3                     TMR3H           equ	4019	;# 
  1359   000FB4                     CMCON           equ	4020	;# 
  1360   000FB5                     CVRCON          equ	4021	;# 
  1361   000FB6                     ECCP1AS         equ	4022	;# 
  1362   000FB7                     CCP3CON         equ	4023	;# 
  1363   000FB7                     ECCP3CON        equ	4023	;# 
  1364   000FB8                     CCPR3           equ	4024	;# 
  1365   000FB8                     CCPR3L          equ	4024	;# 
  1366   000FB9                     CCPR3H          equ	4025	;# 
  1367   000FBA                     CCP2CON         equ	4026	;# 
  1368   000FBA                     ECCP2CON        equ	4026	;# 
  1369   000FBB                     CCPR2           equ	4027	;# 
  1370   000FBB                     CCPR2L          equ	4027	;# 
  1371   000FBC                     CCPR2H          equ	4028	;# 
  1372   000FBD                     CCP1CON         equ	4029	;# 
  1373   000FBD                     ECCP1CON        equ	4029	;# 
  1374   000FBE                     CCPR1           equ	4030	;# 
  1375   000FBE                     CCPR1L          equ	4030	;# 
  1376   000FBF                     CCPR1H          equ	4031	;# 
  1377   000FC0                     ADCON2          equ	4032	;# 
  1378   000FC1                     ADCON1          equ	4033	;# 
  1379   000FC2                     ADCON0          equ	4034	;# 
  1380   000FC3                     ADRES           equ	4035	;# 
  1381   000FC3                     ADRESL          equ	4035	;# 
  1382   000FC4                     ADRESH          equ	4036	;# 
  1383   000FC5                     SSP1CON2        equ	4037	;# 
  1384   000FC5                     SSPCON2         equ	4037	;# 
  1385   000FC6                     SSP1CON1        equ	4038	;# 
  1386   000FC6                     SSPCON1         equ	4038	;# 
  1387   000FC7                     SSP1STAT        equ	4039	;# 
  1388   000FC7                     SSPSTAT         equ	4039	;# 
  1389   000FC8                     SSP1ADD         equ	4040	;# 
  1390   000FC8                     SSPADD          equ	4040	;# 
  1391   000FC9                     SSP1BUF         equ	4041	;# 
  1392   000FC9                     SSPBUF          equ	4041	;# 
  1393   000FCA                     T2CON           equ	4042	;# 
  1394   000FCB                     PR2             equ	4043	;# 
  1395   000FCB                     MEMCON          equ	4043	;# 
  1396   000FCC                     TMR2            equ	4044	;# 
  1397   000FCD                     T1CON           equ	4045	;# 
  1398   000FCE                     TMR1            equ	4046	;# 
  1399   000FCE                     TMR1L           equ	4046	;# 
  1400   000FCF                     TMR1H           equ	4047	;# 
  1401   000FD0                     RCON            equ	4048	;# 
  1402   000FD1                     WDTCON          equ	4049	;# 
  1403   000FD2                     ECON1           equ	4050	;# 
  1404   000FD3                     OSCCON          equ	4051	;# 
  1405   000FD5                     T0CON           equ	4053	;# 
  1406   000FD6                     TMR0            equ	4054	;# 
  1407   000FD6                     TMR0L           equ	4054	;# 
  1408   000FD7                     TMR0H           equ	4055	;# 
  1409   000FD8                     STATUS          equ	4056	;# 
  1410   000FD9                     FSR2            equ	4057	;# 
  1411   000FD9                     FSR2L           equ	4057	;# 
  1412   000FDA                     FSR2H           equ	4058	;# 
  1413   000FDB                     PLUSW2          equ	4059	;# 
  1414   000FDC                     PREINC2         equ	4060	;# 
  1415   000FDD                     POSTDEC2        equ	4061	;# 
  1416   000FDE                     POSTINC2        equ	4062	;# 
  1417   000FDF                     INDF2           equ	4063	;# 
  1418   000FE0                     BSR             equ	4064	;# 
  1419   000FE1                     FSR1            equ	4065	;# 
  1420   000FE1                     FSR1L           equ	4065	;# 
  1421   000FE2                     FSR1H           equ	4066	;# 
  1422   000FE3                     PLUSW1          equ	4067	;# 
  1423   000FE4                     PREINC1         equ	4068	;# 
  1424   000FE5                     POSTDEC1        equ	4069	;# 
  1425   000FE6                     POSTINC1        equ	4070	;# 
  1426   000FE7                     INDF1           equ	4071	;# 
  1427   000FE8                     WREG            equ	4072	;# 
  1428   000FE9                     FSR0            equ	4073	;# 
  1429   000FE9                     FSR0L           equ	4073	;# 
  1430   000FEA                     FSR0H           equ	4074	;# 
  1431   000FEB                     PLUSW0          equ	4075	;# 
  1432   000FEC                     PREINC0         equ	4076	;# 
  1433   000FED                     POSTDEC0        equ	4077	;# 
  1434   000FEE                     POSTINC0        equ	4078	;# 
  1435   000FEF                     INDF0           equ	4079	;# 
  1436   000FF0                     INTCON3         equ	4080	;# 
  1437   000FF1                     INTCON2         equ	4081	;# 
  1438   000FF2                     INTCON          equ	4082	;# 
  1439   000FF3                     PROD            equ	4083	;# 
  1440   000FF3                     PRODL           equ	4083	;# 
  1441   000FF4                     PRODH           equ	4084	;# 
  1442   000FF5                     TABLAT          equ	4085	;# 
  1443   000FF6                     TBLPTR          equ	4086	;# 
  1444   000FF6                     TBLPTRL         equ	4086	;# 
  1445   000FF7                     TBLPTRH         equ	4087	;# 
  1446   000FF8                     TBLPTRU         equ	4088	;# 
  1447   000FF9                     PCLAT           equ	4089	;# 
  1448   000FF9                     PC              equ	4089	;# 
  1449   000FF9                     PCL             equ	4089	;# 
  1450   000FFA                     PCLATH          equ	4090	;# 
  1451   000FFB                     PCLATU          equ	4091	;# 
  1452   000FFC                     STKPTR          equ	4092	;# 
  1453   000FFD                     TOS             equ	4093	;# 
  1454   000FFD                     TOSL            equ	4093	;# 
  1455   000FFE                     TOSH            equ	4094	;# 
  1456   000FFF                     TOSU            equ	4095	;# 
  1457   000E80                     MAADR5          equ	3712	;# 
  1458   000E81                     MAADR6          equ	3713	;# 
  1459   000E82                     MAADR3          equ	3714	;# 
  1460   000E83                     MAADR4          equ	3715	;# 
  1461   000E84                     MAADR1          equ	3716	;# 
  1462   000E85                     MAADR2          equ	3717	;# 
  1463   000E8A                     MISTAT          equ	3722	;# 
  1464   000E97                     EFLOCON         equ	3735	;# 
  1465   000E98                     EPAUS           equ	3736	;# 
  1466   000E98                     EPAUSL          equ	3736	;# 
  1467   000E99                     EPAUSH          equ	3737	;# 
  1468   000EA0                     MACON1          equ	3744	;# 
  1469   000EA2                     MACON3          equ	3746	;# 
  1470   000EA3                     MACON4          equ	3747	;# 
  1471   000EA4                     MABBIPG         equ	3748	;# 
  1472   000EA6                     MAIPG           equ	3750	;# 
  1473   000EA6                     MAIPGL          equ	3750	;# 
  1474   000EA7                     MAIPGH          equ	3751	;# 
  1475   000EAA                     MAMXFL          equ	3754	;# 
  1476   000EAA                     MAMXFLL         equ	3754	;# 
  1477   000EAB                     MAMXFLH         equ	3755	;# 
  1478   000EB2                     MICMD           equ	3762	;# 
  1479   000EB4                     MIREGADR        equ	3764	;# 
  1480   000EB6                     MIWR            equ	3766	;# 
  1481   000EB6                     MIWRL           equ	3766	;# 
  1482   000EB7                     MIWRH           equ	3767	;# 
  1483   000EB8                     MIRD            equ	3768	;# 
  1484   000EB8                     MIRDL           equ	3768	;# 
  1485   000EB9                     MIRDH           equ	3769	;# 
  1486   000EC0                     EHT0            equ	3776	;# 
  1487   000EC1                     EHT1            equ	3777	;# 
  1488   000EC2                     EHT2            equ	3778	;# 
  1489   000EC3                     EHT3            equ	3779	;# 
  1490   000EC4                     EHT4            equ	3780	;# 
  1491   000EC5                     EHT5            equ	3781	;# 
  1492   000EC6                     EHT6            equ	3782	;# 
  1493   000EC7                     EHT7            equ	3783	;# 
  1494   000EC8                     EPMM0           equ	3784	;# 
  1495   000EC9                     EPMM1           equ	3785	;# 
  1496   000ECA                     EPMM2           equ	3786	;# 
  1497   000ECB                     EPMM3           equ	3787	;# 
  1498   000ECC                     EPMM4           equ	3788	;# 
  1499   000ECD                     EPMM5           equ	3789	;# 
  1500   000ECE                     EPMM6           equ	3790	;# 
  1501   000ECF                     EPMM7           equ	3791	;# 
  1502   000ED0                     EPMCS           equ	3792	;# 
  1503   000ED0                     EPMCSL          equ	3792	;# 
  1504   000ED1                     EPMCSH          equ	3793	;# 
  1505   000ED4                     EPMO            equ	3796	;# 
  1506   000ED4                     EPMOL           equ	3796	;# 
  1507   000ED5                     EPMOH           equ	3797	;# 
  1508   000ED8                     ERXFCON         equ	3800	;# 
  1509   000ED9                     EPKTCNT         equ	3801	;# 
  1510   000EE2                     EWRPT           equ	3810	;# 
  1511   000EE2                     EWRPTL          equ	3810	;# 
  1512   000EE3                     EWRPTH          equ	3811	;# 
  1513   000EE4                     ETXST           equ	3812	;# 
  1514   000EE4                     ETXSTL          equ	3812	;# 
  1515   000EE5                     ETXSTH          equ	3813	;# 
  1516   000EE6                     ETXND           equ	3814	;# 
  1517   000EE6                     ETXNDL          equ	3814	;# 
  1518   000EE7                     ETXNDH          equ	3815	;# 
  1519   000EE8                     ERXST           equ	3816	;# 
  1520   000EE8                     ERXSTL          equ	3816	;# 
  1521   000EE9                     ERXSTH          equ	3817	;# 
  1522   000EEA                     ERXND           equ	3818	;# 
  1523   000EEA                     ERXNDL          equ	3818	;# 
  1524   000EEB                     ERXNDH          equ	3819	;# 
  1525   000EEC                     ERXRDPT         equ	3820	;# 
  1526   000EEC                     ERXRDPTL        equ	3820	;# 
  1527   000EED                     ERXRDPTH        equ	3821	;# 
  1528   000EEE                     ERXWRPT         equ	3822	;# 
  1529   000EEE                     ERXWRPTL        equ	3822	;# 
  1530   000EEF                     ERXWRPTH        equ	3823	;# 
  1531   000EF0                     EDMAST          equ	3824	;# 
  1532   000EF0                     EDMASTL         equ	3824	;# 
  1533   000EF1                     EDMASTH         equ	3825	;# 
  1534   000EF2                     EDMAND          equ	3826	;# 
  1535   000EF2                     EDMANDL         equ	3826	;# 
  1536   000EF3                     EDMANDH         equ	3827	;# 
  1537   000EF4                     EDMADST         equ	3828	;# 
  1538   000EF4                     EDMADSTL        equ	3828	;# 
  1539   000EF5                     EDMADSTH        equ	3829	;# 
  1540   000EF6                     EDMACS          equ	3830	;# 
  1541   000EF6                     EDMACSL         equ	3830	;# 
  1542   000EF7                     EDMACSH         equ	3831	;# 
  1543   000EFB                     EIE             equ	3835	;# 
  1544   000EFD                     ESTAT           equ	3837	;# 
  1545   000EFE                     ECON2           equ	3838	;# 
  1546   000F60                     EIR             equ	3936	;# 
  1547   000F61                     EDATA           equ	3937	;# 
  1548   000F67                     ECCP2DEL        equ	3943	;# 
  1549   000F68                     ECCP2AS         equ	3944	;# 
  1550   000F69                     ECCP3DEL        equ	3945	;# 
  1551   000F6A                     ECCP3AS         equ	3946	;# 
  1552   000F70                     CCP5CON         equ	3952	;# 
  1553   000F71                     CCPR5           equ	3953	;# 
  1554   000F71                     CCPR5L          equ	3953	;# 
  1555   000F72                     CCPR5H          equ	3954	;# 
  1556   000F73                     CCP4CON         equ	3955	;# 
  1557   000F74                     CCPR4           equ	3956	;# 
  1558   000F74                     CCPR4L          equ	3956	;# 
  1559   000F75                     CCPR4H          equ	3957	;# 
  1560   000F76                     T4CON           equ	3958	;# 
  1561   000F77                     PR4             equ	3959	;# 
  1562   000F78                     TMR4            equ	3960	;# 
  1563   000F79                     ECCP1DEL        equ	3961	;# 
  1564   000F7A                     ERDPT           equ	3962	;# 
  1565   000F7A                     ERDPTL          equ	3962	;# 
  1566   000F7B                     ERDPTH          equ	3963	;# 
  1567   000F7E                     BAUDCON1        equ	3966	;# 
  1568   000F7E                     BAUDCON         equ	3966	;# 
  1569   000F7E                     BAUDCTL         equ	3966	;# 
  1570   000F7E                     BAUDCTL1        equ	3966	;# 
  1571   000F7F                     SPBRGH1         equ	3967	;# 
  1572   000F7F                     SPBRGH          equ	3967	;# 
  1573   000F80                     PORTA           equ	3968	;# 
  1574   000F81                     PORTB           equ	3969	;# 
  1575   000F82                     PORTC           equ	3970	;# 
  1576   000F83                     PORTD           equ	3971	;# 
  1577   000F84                     PORTE           equ	3972	;# 
  1578   000F85                     PORTF           equ	3973	;# 
  1579   000F86                     PORTG           equ	3974	;# 
  1580   000F89                     LATA            equ	3977	;# 
  1581   000F8A                     LATB            equ	3978	;# 
  1582   000F8B                     LATC            equ	3979	;# 
  1583   000F8C                     LATD            equ	3980	;# 
  1584   000F8D                     LATE            equ	3981	;# 
  1585   000F8E                     LATF            equ	3982	;# 
  1586   000F8F                     LATG            equ	3983	;# 
  1587   000F92                     TRISA           equ	3986	;# 
  1588   000F92                     DDRA            equ	3986	;# 
  1589   000F93                     TRISB           equ	3987	;# 
  1590   000F93                     DDRB            equ	3987	;# 
  1591   000F94                     TRISC           equ	3988	;# 
  1592   000F94                     DDRC            equ	3988	;# 
  1593   000F95                     TRISD           equ	3989	;# 
  1594   000F95                     DDRD            equ	3989	;# 
  1595   000F96                     TRISE           equ	3990	;# 
  1596   000F96                     DDRE            equ	3990	;# 
  1597   000F97                     TRISF           equ	3991	;# 
  1598   000F97                     DDRF            equ	3991	;# 
  1599   000F98                     TRISG           equ	3992	;# 
  1600   000F98                     DDRG            equ	3992	;# 
  1601   000F9B                     OSCTUNE         equ	3995	;# 
  1602   000F9D                     PIE1            equ	3997	;# 
  1603   000F9E                     PIR1            equ	3998	;# 
  1604   000F9F                     IPR1            equ	3999	;# 
  1605   000FA0                     PIE2            equ	4000	;# 
  1606   000FA1                     PIR2            equ	4001	;# 
  1607   000FA2                     IPR2            equ	4002	;# 
  1608   000FA3                     PIE3            equ	4003	;# 
  1609   000FA4                     PIR3            equ	4004	;# 
  1610   000FA5                     IPR3            equ	4005	;# 
  1611   000FA6                     EECON1          equ	4006	;# 
  1612   000FA7                     EECON2          equ	4007	;# 
  1613   000FAB                     RCSTA1          equ	4011	;# 
  1614   000FAB                     RCSTA           equ	4011	;# 
  1615   000FAC                     TXSTA1          equ	4012	;# 
  1616   000FAC                     TXSTA           equ	4012	;# 
  1617   000FAD                     TXREG1          equ	4013	;# 
  1618   000FAD                     TXREG           equ	4013	;# 
  1619   000FAE                     RCREG1          equ	4014	;# 
  1620   000FAE                     RCREG           equ	4014	;# 
  1621   000FAF                     SPBRG1          equ	4015	;# 
  1622   000FAF                     SPBRG           equ	4015	;# 
  1623   000FB1                     T3CON           equ	4017	;# 
  1624   000FB2                     TMR3            equ	4018	;# 
  1625   000FB2                     TMR3L           equ	4018	;# 
  1626   000FB3                     TMR3H           equ	4019	;# 
  1627   000FB4                     CMCON           equ	4020	;# 
  1628   000FB5                     CVRCON          equ	4021	;# 
  1629   000FB6                     ECCP1AS         equ	4022	;# 
  1630   000FB7                     CCP3CON         equ	4023	;# 
  1631   000FB7                     ECCP3CON        equ	4023	;# 
  1632   000FB8                     CCPR3           equ	4024	;# 
  1633   000FB8                     CCPR3L          equ	4024	;# 
  1634   000FB9                     CCPR3H          equ	4025	;# 
  1635   000FBA                     CCP2CON         equ	4026	;# 
  1636   000FBA                     ECCP2CON        equ	4026	;# 
  1637   000FBB                     CCPR2           equ	4027	;# 
  1638   000FBB                     CCPR2L          equ	4027	;# 
  1639   000FBC                     CCPR2H          equ	4028	;# 
  1640   000FBD                     CCP1CON         equ	4029	;# 
  1641   000FBD                     ECCP1CON        equ	4029	;# 
  1642   000FBE                     CCPR1           equ	4030	;# 
  1643   000FBE                     CCPR1L          equ	4030	;# 
  1644   000FBF                     CCPR1H          equ	4031	;# 
  1645   000FC0                     ADCON2          equ	4032	;# 
  1646   000FC1                     ADCON1          equ	4033	;# 
  1647   000FC2                     ADCON0          equ	4034	;# 
  1648   000FC3                     ADRES           equ	4035	;# 
  1649   000FC3                     ADRESL          equ	4035	;# 
  1650   000FC4                     ADRESH          equ	4036	;# 
  1651   000FC5                     SSP1CON2        equ	4037	;# 
  1652   000FC5                     SSPCON2         equ	4037	;# 
  1653   000FC6                     SSP1CON1        equ	4038	;# 
  1654   000FC6                     SSPCON1         equ	4038	;# 
  1655   000FC7                     SSP1STAT        equ	4039	;# 
  1656   000FC7                     SSPSTAT         equ	4039	;# 
  1657   000FC8                     SSP1ADD         equ	4040	;# 
  1658   000FC8                     SSPADD          equ	4040	;# 
  1659   000FC9                     SSP1BUF         equ	4041	;# 
  1660   000FC9                     SSPBUF          equ	4041	;# 
  1661   000FCA                     T2CON           equ	4042	;# 
  1662   000FCB                     PR2             equ	4043	;# 
  1663   000FCB                     MEMCON          equ	4043	;# 
  1664   000FCC                     TMR2            equ	4044	;# 
  1665   000FCD                     T1CON           equ	4045	;# 
  1666   000FCE                     TMR1            equ	4046	;# 
  1667   000FCE                     TMR1L           equ	4046	;# 
  1668   000FCF                     TMR1H           equ	4047	;# 
  1669   000FD0                     RCON            equ	4048	;# 
  1670   000FD1                     WDTCON          equ	4049	;# 
  1671   000FD2                     ECON1           equ	4050	;# 
  1672   000FD3                     OSCCON          equ	4051	;# 
  1673   000FD5                     T0CON           equ	4053	;# 
  1674   000FD6                     TMR0            equ	4054	;# 
  1675   000FD6                     TMR0L           equ	4054	;# 
  1676   000FD7                     TMR0H           equ	4055	;# 
  1677   000FD8                     STATUS          equ	4056	;# 
  1678   000FD9                     FSR2            equ	4057	;# 
  1679   000FD9                     FSR2L           equ	4057	;# 
  1680   000FDA                     FSR2H           equ	4058	;# 
  1681   000FDB                     PLUSW2          equ	4059	;# 
  1682   000FDC                     PREINC2         equ	4060	;# 
  1683   000FDD                     POSTDEC2        equ	4061	;# 
  1684   000FDE                     POSTINC2        equ	4062	;# 
  1685   000FDF                     INDF2           equ	4063	;# 
  1686   000FE0                     BSR             equ	4064	;# 
  1687   000FE1                     FSR1            equ	4065	;# 
  1688   000FE1                     FSR1L           equ	4065	;# 
  1689   000FE2                     FSR1H           equ	4066	;# 
  1690   000FE3                     PLUSW1          equ	4067	;# 
  1691   000FE4                     PREINC1         equ	4068	;# 
  1692   000FE5                     POSTDEC1        equ	4069	;# 
  1693   000FE6                     POSTINC1        equ	4070	;# 
  1694   000FE7                     INDF1           equ	4071	;# 
  1695   000FE8                     WREG            equ	4072	;# 
  1696   000FE9                     FSR0            equ	4073	;# 
  1697   000FE9                     FSR0L           equ	4073	;# 
  1698   000FEA                     FSR0H           equ	4074	;# 
  1699   000FEB                     PLUSW0          equ	4075	;# 
  1700   000FEC                     PREINC0         equ	4076	;# 
  1701   000FED                     POSTDEC0        equ	4077	;# 
  1702   000FEE                     POSTINC0        equ	4078	;# 
  1703   000FEF                     INDF0           equ	4079	;# 
  1704   000FF0                     INTCON3         equ	4080	;# 
  1705   000FF1                     INTCON2         equ	4081	;# 
  1706   000FF2                     INTCON          equ	4082	;# 
  1707   000FF3                     PROD            equ	4083	;# 
  1708   000FF3                     PRODL           equ	4083	;# 
  1709   000FF4                     PRODH           equ	4084	;# 
  1710   000FF5                     TABLAT          equ	4085	;# 
  1711   000FF6                     TBLPTR          equ	4086	;# 
  1712   000FF6                     TBLPTRL         equ	4086	;# 
  1713   000FF7                     TBLPTRH         equ	4087	;# 
  1714   000FF8                     TBLPTRU         equ	4088	;# 
  1715   000FF9                     PCLAT           equ	4089	;# 
  1716   000FF9                     PC              equ	4089	;# 
  1717   000FF9                     PCL             equ	4089	;# 
  1718   000FFA                     PCLATH          equ	4090	;# 
  1719   000FFB                     PCLATU          equ	4091	;# 
  1720   000FFC                     STKPTR          equ	4092	;# 
  1721   000FFD                     TOS             equ	4093	;# 
  1722   000FFD                     TOSL            equ	4093	;# 
  1723   000FFE                     TOSH            equ	4094	;# 
  1724   000FFF                     TOSU            equ	4095	;# 
  1725                           
  1726                           	psect	nvCOMRAM
  1727   000052                     __pnvCOMRAM:
  1728                           	callstack 0
  1729   000052                     _EUSART1_RxDefaultInterruptHandler:
  1730                           	callstack 0
  1731   000052                     	ds	3
  1732   000055                     _EUSART1_TxDefaultInterruptHandler:
  1733                           	callstack 0
  1734   000055                     	ds	3
  1735                           
  1736                           	psect	nvBANK0
  1737   000060                     __pnvBANK0:
  1738                           	callstack 0
  1739   000060                     _EUSART1_ErrorHandler:
  1740                           	callstack 0
  1741   000060                     	ds	3
  1742   000063                     _EUSART1_OverrunErrorHandler:
  1743                           	callstack 0
  1744   000063                     	ds	3
  1745   000066                     _EUSART1_FramingErrorHandler:
  1746                           	callstack 0
  1747   000066                     	ds	3
  1748   007E68                     _TMR1ON         set	32360
  1749   007C0D                     _RB5            set	31757
  1750   007C03                     _RA3            set	31747
  1751   007C0A                     _RB2            set	31754
  1752   007C09                     _RB1            set	31753
  1753   007E6D                     _T1CKPS1        set	32365
  1754   007E6C                     _T1CKPS0        set	32364
  1755   007E69                     _TMR1CS         set	32361
  1756   000EA4                     _MABBIPG        set	3748
  1757   000EFB                     _EIE            set	3835
  1758   000EB2                     _MICMD          set	3762
  1759   000EA3                     _MACON4         set	3747
  1760   000EA2                     _MACON3         set	3746
  1761   000EA0                     _MACON1         set	3744
  1762   000EFD                     _ESTAT          set	3837
  1763   000EFE                     _ECON2          set	3838
  1764   000FCE                     _TMR1           set	4046
  1765   000F9E                     _PIR1bits       set	3998
  1766   000FD0                     _RCONbits       set	4048
  1767   000FAE                     _RCREG1         set	4014
  1768   000FAB                     _RCSTA1bits     set	4011
  1769   000FAD                     _TXREG1         set	4013
  1770   000FAC                     _TXSTA1bits     set	4012
  1771   000F7F                     _SPBRGH1        set	3967
  1772   000FAF                     _SPBRG1         set	4015
  1773   000FAC                     _TXSTA1         set	4012
  1774   000FAB                     _RCSTA1         set	4011
  1775   000F7E                     _BAUDCON1       set	3966
  1776   000F9D                     _PIE1bits       set	3997
  1777   000F9B                     _OSCTUNE        set	3995
  1778   000FD3                     _OSCCON         set	4051
  1779   000FF2                     _INTCONbits     set	4082
  1780   000FC1                     _ADCON1bits     set	4033
  1781   000F95                     _TRISD          set	3989
  1782   000F94                     _TRISC          set	3988
  1783   000F93                     _TRISB          set	3987
  1784   000F98                     _TRISG          set	3992
  1785   000F92                     _TRISA          set	3986
  1786   000F97                     _TRISF          set	3991
  1787   000F96                     _TRISE          set	3990
  1788   000F8B                     _LATC           set	3979
  1789   000F8F                     _LATG           set	3983
  1790   000F8A                     _LATB           set	3978
  1791   000F8E                     _LATF           set	3982
  1792   000F89                     _LATA           set	3977
  1793   000F8C                     _LATD           set	3980
  1794   000F8D                     _LATE           set	3981
  1795   000F60                     _EIR            set	3936
  1796   000FD2                     _ECON1          set	4050
  1797                           
  1798                           ; #config settings
  1799                           
  1800                           	psect	cinit
  1801   001928                     __pcinit:
  1802                           	callstack 0
  1803   001928                     start_initialization:
  1804                           	callstack 0
  1805   001928                     __initialization:
  1806                           	callstack 0
  1807                           
  1808                           ; Clear objects allocated to BANK0 (8 bytes)
  1809   001928  EE00  F069         	lfsr	0,__pbssBANK0
  1810   00192C  0E08               	movlw	8
  1811   00192E                     clear_0:
  1812   00192E  6AEE               	clrf	postinc0,c
  1813   001930  06E8               	decf	wreg,f,c
  1814   001932  E1FD               	bnz	clear_0
  1815                           
  1816                           ; Clear objects allocated to COMRAM (23 bytes)
  1817   001934  EE00  F03B         	lfsr	0,__pbssCOMRAM
  1818   001938  0E17               	movlw	23
  1819   00193A                     clear_1:
  1820   00193A  6AEE               	clrf	postinc0,c
  1821   00193C  06E8               	decf	wreg,f,c
  1822   00193E  E1FD               	bnz	clear_1
  1823   001940                     end_of_initialization:
  1824                           	callstack 0
  1825   001940                     __end_of__initialization:
  1826                           	callstack 0
  1827   001940  9001               	bcf	int$flags,0,c	;clear compiler interrupt flag (level 1)
  1828   001942  9201               	bcf	int$flags,1,c	;clear compiler interrupt flag (level 2)
  1829   001944  0100               	movlb	0
  1830   001946  EF0F  F00C         	goto	_main	;jump to C main() function
  1831                           
  1832                           	psect	bssCOMRAM
  1833   00003B                     __pbssCOMRAM:
  1834                           	callstack 0
  1835   00003B                     _eusart1RxStatusBuffer:
  1836                           	callstack 0
  1837   00003B                     	ds	8
  1838   000043                     _eusart1TxBuffer:
  1839                           	callstack 0
  1840   000043                     	ds	8
  1841   00004B                     _eusart1RxLastError:
  1842                           	callstack 0
  1843   00004B                     	ds	1
  1844   00004C                     _eusart1RxCount:
  1845                           	callstack 0
  1846   00004C                     	ds	1
  1847   00004D                     _eusart1RxTail:
  1848                           	callstack 0
  1849   00004D                     	ds	1
  1850   00004E                     _eusart1RxHead:
  1851                           	callstack 0
  1852   00004E                     	ds	1
  1853   00004F                     _eusart1TxBufferRemaining:
  1854                           	callstack 0
  1855   00004F                     	ds	1
  1856   000050                     _eusart1TxTail:
  1857                           	callstack 0
  1858   000050                     	ds	1
  1859   000051                     _eusart1TxHead:
  1860                           	callstack 0
  1861   000051                     	ds	1
  1862                           
  1863                           	psect	bssBANK0
  1864   000069                     __pbssBANK0:
  1865                           	callstack 0
  1866   000069                     _eusart1RxBuffer:
  1867                           	callstack 0
  1868   000069                     	ds	8
  1869                           
  1870                           	psect	cstackBANK0
  1871   000071                     __pcstackBANK0:
  1872                           	callstack 0
  1873   000071                     calc_dist@timer:
  1874                           	callstack 0
  1875                           
  1876                           ; 4 bytes @ 0x0
  1877   000071                     	ds	4
  1878   000075                     calc_dist@distance:
  1879                           	callstack 0
  1880                           
  1881                           ; 4 bytes @ 0x4
  1882   000075                     	ds	4
  1883                           
  1884                           	psect	cstackCOMRAM
  1885   000002                     __pcstackCOMRAM:
  1886                           	callstack 0
  1887   000002                     ??_INTERRUPT_InterruptManager:
  1888                           
  1889                           ; 1 bytes @ 0x0
  1890   000002                     	ds	4
  1891   000006                     ?___xxtofl:
  1892                           	callstack 0
  1893   000006                     EUSART1_SetFramingErrorHandler@interruptHandler:
  1894                           	callstack 0
  1895   000006                     EUSART1_SetOverrunErrorHandler@interruptHandler:
  1896                           	callstack 0
  1897   000006                     EUSART1_SetErrorHandler@interruptHandler:
  1898                           	callstack 0
  1899   000006                     EUSART1_SetTxInterruptHandler@interruptHandler:
  1900                           	callstack 0
  1901   000006                     EUSART1_SetRxInterruptHandler@interruptHandler:
  1902                           	callstack 0
  1903   000006                     ___xxtofl@val:
  1904                           	callstack 0
  1905   000006                     
  1906                           ; 1 bytes @ 0x4
  1907   000006                     	ds	3
  1908   000009                     
  1909                           ; 1 bytes @ 0x7
  1910   000009                     	ds	1
  1911   00000A                     ??___xxtofl:
  1912                           
  1913                           ; 1 bytes @ 0x8
  1914   00000A                     	ds	4
  1915   00000E                     ___xxtofl@sign:
  1916                           	callstack 0
  1917                           
  1918                           ; 1 bytes @ 0xC
  1919   00000E                     	ds	1
  1920   00000F                     ___xxtofl@exp:
  1921                           	callstack 0
  1922                           
  1923                           ; 1 bytes @ 0xD
  1924   00000F                     	ds	1
  1925   000010                     ___xxtofl@arg:
  1926                           	callstack 0
  1927                           
  1928                           ; 4 bytes @ 0xE
  1929   000010                     	ds	4
  1930   000014                     ?___fldiv:
  1931                           	callstack 0
  1932   000014                     ___fldiv@b:
  1933                           	callstack 0
  1934                           
  1935                           ; 4 bytes @ 0x12
  1936   000014                     	ds	4
  1937   000018                     ___fldiv@a:
  1938                           	callstack 0
  1939                           
  1940                           ; 4 bytes @ 0x16
  1941   000018                     	ds	4
  1942   00001C                     ??___fldiv:
  1943                           
  1944                           ; 1 bytes @ 0x1A
  1945   00001C                     	ds	4
  1946   000020                     ___fldiv@rem:
  1947                           	callstack 0
  1948                           
  1949                           ; 4 bytes @ 0x1E
  1950   000020                     	ds	4
  1951   000024                     ___fldiv@sign:
  1952                           	callstack 0
  1953                           
  1954                           ; 1 bytes @ 0x22
  1955   000024                     	ds	1
  1956   000025                     ___fldiv@new_exp:
  1957                           	callstack 0
  1958                           
  1959                           ; 2 bytes @ 0x23
  1960   000025                     	ds	2
  1961   000027                     ___fldiv@grs:
  1962                           	callstack 0
  1963                           
  1964                           ; 4 bytes @ 0x25
  1965   000027                     	ds	4
  1966   00002B                     ___fldiv@bexp:
  1967                           	callstack 0
  1968                           
  1969                           ; 1 bytes @ 0x29
  1970   00002B                     	ds	1
  1971   00002C                     ___fldiv@aexp:
  1972                           	callstack 0
  1973                           
  1974                           ; 1 bytes @ 0x2A
  1975   00002C                     	ds	1
  1976   00002D                     ?___fltol:
  1977                           	callstack 0
  1978   00002D                     ___fltol@f1:
  1979                           	callstack 0
  1980                           
  1981                           ; 4 bytes @ 0x2B
  1982   00002D                     	ds	4
  1983   000031                     ??___fltol:
  1984                           
  1985                           ; 1 bytes @ 0x2F
  1986   000031                     	ds	4
  1987   000035                     ___fltol@sign1:
  1988                           	callstack 0
  1989                           
  1990                           ; 1 bytes @ 0x33
  1991   000035                     	ds	1
  1992   000036                     ___fltol@exp1:
  1993                           	callstack 0
  1994                           
  1995                           ; 1 bytes @ 0x34
  1996   000036                     	ds	1
  1997   000037                     ?_calc_dist:
  1998                           	callstack 0
  1999                           
  2000                           ; 2 bytes @ 0x35
  2001   000037                     	ds	2
  2002   000039                     ??_main:
  2003                           
  2004                           ; 1 bytes @ 0x37
  2005   000039                     	ds	2
  2006                           
  2007 ;;
  2008 ;;Main: autosize = 0, tempsize = 2, incstack = 0, save=0
  2009 ;;
  2010 ;; *************** function _main *****************
  2011 ;; Defined at:
  2012 ;;		line 64 in file "main.c"
  2013 ;; Parameters:    Size  Location     Type
  2014 ;;		None
  2015 ;; Auto vars:     Size  Location     Type
  2016 ;;		None
  2017 ;; Return value:  Size  Location     Type
  2018 ;;                  1    wreg      void 
  2019 ;; Registers used:
  2020 ;;		wreg, status,2, status,0, cstack
  2021 ;; Tracked objects:
  2022 ;;		On entry : 0/0
  2023 ;;		On exit  : 0/0
  2024 ;;		Unchanged: 0/0
  2025 ;; Data sizes:     COMRAM   BANK0   BANK1   BANK2   BANK3   BANK4   BANK5   BANK6   BANK7   BANK8   BANK9  BANK10  BANK1
      +1  BANK12  BANK13  BANK14  BANK15
  2026 ;;      Params:         0       0       0       0       0       0       0       0       0       0       0       0       
      +0       0       0       0       0
  2027 ;;      Locals:         0       0       0       0       0       0       0       0       0       0       0       0       
      +0       0       0       0       0
  2028 ;;      Temps:          2       0       0       0       0       0       0       0       0       0       0       0       
      +0       0       0       0       0
  2029 ;;      Totals:         2       0       0       0       0       0       0       0       0       0       0       0       
      +0       0       0       0       0
  2030 ;;Total ram usage:        2 bytes
  2031 ;; Hardware stack levels required when called: 7
  2032 ;; This function calls:
  2033 ;;		_SYSTEM_Initialize
  2034 ;;		_calc_dist
  2035 ;; This function is called by:
  2036 ;;		Startup code after reset
  2037 ;; This function uses a non-reentrant model
  2038 ;;
  2039                           
  2040                           	psect	text0
  2041   00181E                     __ptext0:
  2042                           	callstack 0
  2043   00181E                     _main:
  2044                           	callstack 24
  2045   00181E                     
  2046                           ;main.c: 67:     SYSTEM_Initialize();
  2047   00181E  ECB2  F00C         	call	_SYSTEM_Initialize	;wreg free
  2048   001822                     
  2049                           ;main.c: 72:     TMR1 = 0;
  2050   001822  6ACF               	clrf	207,c	;volatile
  2051   001824  0E00               	movlw	0
  2052   001826  6ECE               	movwf	206,c	;volatile
  2053   001828                     
  2054                           ;main.c: 74:     TMR1CS = 0;
  2055   001828  92CD               	bcf	4045,1,c	;volatile
  2056   00182A                     
  2057                           ;main.c: 76:     T1CKPS0 = 0;
  2058   00182A  98CD               	bcf	4045,4,c	;volatile
  2059   00182C                     
  2060                           ;main.c: 77:     T1CKPS1 = 0;
  2061   00182C  9ACD               	bcf	4045,5,c	;volatile
  2062   00182E                     
  2063                           ;main.c: 95:     RB1=1;
  2064   00182E  8281               	bsf	3969,1,c	;volatile
  2065   001830                     
  2066                           ;main.c: 96:     RB2=1;
  2067   001830  8481               	bsf	3969,2,c	;volatile
  2068   001832                     
  2069                           ;main.c: 98:     _delay((unsigned long)((500)*(25000000/4000.0)));
  2070   001832  0E10               	movlw	16
  2071   001834  6E3A               	movwf	(??_main+1)^0,c
  2072   001836  0EDB               	movlw	219
  2073   001838  6E39               	movwf	??_main^0,c
  2074   00183A  0E64               	movlw	100
  2075   00183C                     u1717:
  2076   00183C  2EE8               	decfsz	wreg,f,c
  2077   00183E  D7FE               	bra	u1717
  2078   001840  2E39               	decfsz	??_main^0,f,c
  2079   001842  D7FC               	bra	u1717
  2080   001844  2E3A               	decfsz	(??_main+1)^0,f,c
  2081   001846  D7FA               	bra	u1717
  2082   001848  D000               	nop2	
  2083   00184A                     
  2084                           ;main.c: 99:     RB1=0;
  2085   00184A  9281               	bcf	3969,1,c	;volatile
  2086   00184C                     
  2087                           ;main.c: 100:     RB2=0;
  2088   00184C  9481               	bcf	3969,2,c	;volatile
  2089   00184E                     l2218:
  2090                           
  2091                           ;main.c: 104:     {;main.c: 108:         if (calc_dist() <= 512){
  2092   00184E  EC7D  F00B         	call	_calc_dist	;wreg free
  2093   001852  BE38               	btfsc	(?_calc_dist+1)^0,7,c
  2094   001854  EF36  F00C         	goto	u1700
  2095   001858  0437               	decf	?_calc_dist^0,w,c
  2096   00185A  0E02               	movlw	2
  2097   00185C  5838               	subwfb	(?_calc_dist+1)^0,w,c
  2098   00185E  B0D8               	btfsc	status,0,c
  2099   001860  EF34  F00C         	goto	u1701
  2100   001864  EF36  F00C         	goto	u1700
  2101   001868                     u1701:
  2102   001868  EF3A  F00C         	goto	l291
  2103   00186C                     u1700:
  2104   00186C                     
  2105                           ;main.c: 109:             RB1=1;
  2106   00186C  8281               	bsf	3969,1,c	;volatile
  2107                           
  2108                           ;main.c: 110:             RB2=0;
  2109   00186E  9481               	bcf	3969,2,c	;volatile
  2110                           
  2111                           ;main.c: 111:         } else {
  2112   001870  EF3C  F00C         	goto	l2222
  2113   001874                     l291:
  2114                           
  2115                           ;main.c: 112:             RB1=0;
  2116   001874  9281               	bcf	3969,1,c	;volatile
  2117                           
  2118                           ;main.c: 113:             RB2=1;
  2119   001876  8481               	bsf	3969,2,c	;volatile
  2120   001878                     l2222:
  2121                           
  2122                           ;main.c: 119:         _delay((unsigned long)((250)*(25000000/4000.0)));
  2123   001878  0E08               	movlw	8
  2124   00187A  6E3A               	movwf	(??_main+1)^0,c
  2125   00187C  0EEE               	movlw	238
  2126   00187E  6E39               	movwf	??_main^0,c
  2127   001880  0E31               	movlw	49
  2128   001882                     u1727:
  2129   001882  2EE8               	decfsz	wreg,f,c
  2130   001884  D7FE               	bra	u1727
  2131   001886  2E39               	decfsz	??_main^0,f,c
  2132   001888  D7FC               	bra	u1727
  2133   00188A  2E3A               	decfsz	(??_main+1)^0,f,c
  2134   00188C  D7FA               	bra	u1727
  2135   00188E  0000               	nop	
  2136   001890  EF27  F00C         	goto	l2218
  2137   001894  EF68  F000         	goto	start
  2138   001898                     __end_of_main:
  2139                           	callstack 0
  2140                           
  2141 ;; *************** function _calc_dist *****************
  2142 ;; Defined at:
  2143 ;;		line 124 in file "main.c"
  2144 ;; Parameters:    Size  Location     Type
  2145 ;;		None
  2146 ;; Auto vars:     Size  Location     Type
  2147 ;;  distance        4    4[BANK0 ] unsigned long 
  2148 ;;  timer           4    0[BANK0 ] unsigned long 
  2149 ;; Return value:  Size  Location     Type
  2150 ;;                  2   53[COMRAM] int 
  2151 ;; Registers used:
  2152 ;;		wreg, status,2, status,0, cstack
  2153 ;; Tracked objects:
  2154 ;;		On entry : 0/0
  2155 ;;		On exit  : 0/0
  2156 ;;		Unchanged: 0/0
  2157 ;; Data sizes:     COMRAM   BANK0   BANK1   BANK2   BANK3   BANK4   BANK5   BANK6   BANK7   BANK8   BANK9  BANK10  BANK1
      +1  BANK12  BANK13  BANK14  BANK15
  2158 ;;      Params:         2       0       0       0       0       0       0       0       0       0       0       0       
      +0       0       0       0       0
  2159 ;;      Locals:         0       8       0       0       0       0       0       0       0       0       0       0       
      +0       0       0       0       0
  2160 ;;      Temps:          0       0       0       0       0       0       0       0       0       0       0       0       
      +0       0       0       0       0
  2161 ;;      Totals:         2       8       0       0       0       0       0       0       0       0       0       0       
      +0       0       0       0       0
  2162 ;;Total ram usage:       10 bytes
  2163 ;; Hardware stack levels used: 1
  2164 ;; Hardware stack levels required when called: 5
  2165 ;; This function calls:
  2166 ;;		___fldiv
  2167 ;;		___fltol
  2168 ;;		___xxtofl
  2169 ;; This function is called by:
  2170 ;;		_main
  2171 ;; This function uses a non-reentrant model
  2172 ;;
  2173                           
  2174                           	psect	text1
  2175   0016FA                     __ptext1:
  2176                           	callstack 0
  2177   0016FA                     _calc_dist:
  2178                           	callstack 25
  2179   0016FA                     
  2180                           ;main.c: 127:   unsigned long int timer=0;
  2181   0016FA  0E00               	movlw	0
  2182   0016FC  0100               	movlb	0	; () banked
  2183   0016FE  6F71               	movwf	calc_dist@timer& (0+255),b
  2184   001700  0E00               	movlw	0
  2185   001702  6F72               	movwf	(calc_dist@timer+1)& (0+255),b
  2186   001704  0E00               	movlw	0
  2187   001706  6F73               	movwf	(calc_dist@timer+2)& (0+255),b
  2188   001708  0E00               	movlw	0
  2189   00170A  6F74               	movwf	(calc_dist@timer+3)& (0+255),b
  2190                           
  2191                           ;main.c: 128:   TMR1=0;
  2192   00170C  6ACF               	clrf	207,c	;volatile
  2193   00170E  0E00               	movlw	0
  2194   001710  6ECE               	movwf	206,c	;volatile
  2195   001712                     
  2196                           ; BSR set to: 0
  2197                           ;main.c: 130:   RA3=1;
  2198   001712  8680               	bsf	3968,3,c	;volatile
  2199   001714                     
  2200                           ; BSR set to: 0
  2201                           ;main.c: 131:   _delay((unsigned long)((10)*(25000000/4000000.0)));
  2202   001714  0E14               	movlw	20
  2203   001716                     u1737:
  2204   001716  2EE8               	decfsz	wreg,f,c
  2205   001718  D7FE               	bra	u1737
  2206   00171A  D000               	nop2	
  2207   00171C                     
  2208                           ;main.c: 132:   RA3=0;
  2209   00171C  9680               	bcf	3968,3,c	;volatile
  2210   00171E                     l298:
  2211   00171E  AA81               	btfss	3969,5,c	;volatile
  2212   001720  EF94  F00B         	goto	u1681
  2213   001724  EF96  F00B         	goto	u1680
  2214   001728                     u1681:
  2215   001728  EF8F  F00B         	goto	l298
  2216   00172C                     u1680:
  2217   00172C                     
  2218                           ;main.c: 136:   TMR1ON=1;
  2219   00172C  80CD               	bsf	4045,0,c	;volatile
  2220   00172E                     l301:
  2221   00172E  BA81               	btfsc	3969,5,c	;volatile
  2222   001730  EF9C  F00B         	goto	u1691
  2223   001734  EF9E  F00B         	goto	u1690
  2224   001738                     u1691:
  2225   001738  EF97  F00B         	goto	l301
  2226   00173C                     u1690:
  2227   00173C                     
  2228                           ;main.c: 140:   TMR1ON=0;
  2229   00173C  90CD               	bcf	4045,0,c	;volatile
  2230   00173E                     
  2231                           ;main.c: 142:   distance=TMR1/58.82;
  2232   00173E  0EAE               	movlw	174
  2233   001740  6E18               	movwf	___fldiv@a^0,c
  2234   001742  0E47               	movlw	71
  2235   001744  6E19               	movwf	(___fldiv@a+1)^0,c
  2236   001746  0E6B               	movlw	107
  2237   001748  6E1A               	movwf	(___fldiv@a+2)^0,c
  2238   00174A  0E42               	movlw	66
  2239   00174C  6E1B               	movwf	(___fldiv@a+3)^0,c
  2240   00174E  CFCE F006          	movff	4046,___xxtofl@val	;volatile
  2241   001752  CFCF F007          	movff	4047,___xxtofl@val+1	;volatile
  2242   001756  6A08               	clrf	(___xxtofl@val+2)^0,c
  2243   001758  6A09               	clrf	(___xxtofl@val+3)^0,c
  2244   00175A  0E00               	movlw	0
  2245   00175C  ECC8  F009         	call	___xxtofl
  2246   001760  C006  F014         	movff	?___xxtofl,___fldiv@b
  2247   001764  C007  F015         	movff	?___xxtofl+1,___fldiv@b+1
  2248   001768  C008  F016         	movff	?___xxtofl+2,___fldiv@b+2
  2249   00176C  C009  F017         	movff	?___xxtofl+3,___fldiv@b+3
  2250   001770  EC01  F008         	call	___fldiv	;wreg free
  2251   001774  C014  F02D         	movff	?___fldiv,___fltol@f1
  2252   001778  C015  F02E         	movff	?___fldiv+1,___fltol@f1+1
  2253   00177C  C016  F02F         	movff	?___fldiv+2,___fltol@f1+2
  2254   001780  C017  F030         	movff	?___fldiv+3,___fltol@f1+3
  2255   001784  ECA2  F00A         	call	___fltol	;wreg free
  2256   001788  C02D  F075         	movff	?___fltol,calc_dist@distance
  2257   00178C  C02E  F076         	movff	?___fltol+1,calc_dist@distance+1
  2258   001790  C02F  F077         	movff	?___fltol+2,calc_dist@distance+2
  2259   001794  C030  F078         	movff	?___fltol+3,calc_dist@distance+3
  2260   001798                     
  2261                           ;main.c: 147:   return distance;
  2262   001798  C075  F037         	movff	calc_dist@distance,?_calc_dist
  2263   00179C  C076  F038         	movff	calc_dist@distance+1,?_calc_dist+1
  2264   0017A0  0012               	return		;funcret
  2265   0017A2                     __end_of_calc_dist:
  2266                           	callstack 0
  2267                           
  2268 ;; *************** function ___xxtofl *****************
  2269 ;; Defined at:
  2270 ;;		line 10 in file "C:\Program Files\Microchip\xc8\v3.10\pic\sources\c99\common\xxtofl.c"
  2271 ;; Parameters:    Size  Location     Type
  2272 ;;  sign            1    wreg     unsigned char 
  2273 ;;  val             4    4[COMRAM] long 
  2274 ;; Auto vars:     Size  Location     Type
  2275 ;;  sign            1   12[COMRAM] unsigned char 
  2276 ;;  arg             4   14[COMRAM] unsigned long 
  2277 ;;  exp             1   13[COMRAM] unsigned char 
  2278 ;; Return value:  Size  Location     Type
  2279 ;;                  4    4[COMRAM] unsigned char 
  2280 ;; Registers used:
  2281 ;;		wreg, status,2, status,0
  2282 ;; Tracked objects:
  2283 ;;		On entry : 0/0
  2284 ;;		On exit  : 0/0
  2285 ;;		Unchanged: 0/0
  2286 ;; Data sizes:     COMRAM   BANK0   BANK1   BANK2   BANK3   BANK4   BANK5   BANK6   BANK7   BANK8   BANK9  BANK10  BANK1
      +1  BANK12  BANK13  BANK14  BANK15
  2287 ;;      Params:         4       0       0       0       0       0       0       0       0       0       0       0       
      +0       0       0       0       0
  2288 ;;      Locals:         6       0       0       0       0       0       0       0       0       0       0       0       
      +0       0       0       0       0
  2289 ;;      Temps:          4       0       0       0       0       0       0       0       0       0       0       0       
      +0       0       0       0       0
  2290 ;;      Totals:        14       0       0       0       0       0       0       0       0       0       0       0       
      +0       0       0       0       0
  2291 ;;Total ram usage:       14 bytes
  2292 ;; Hardware stack levels used: 1
  2293 ;; Hardware stack levels required when called: 4
  2294 ;; This function calls:
  2295 ;;		Nothing
  2296 ;; This function is called by:
  2297 ;;		_calc_dist
  2298 ;; This function uses a non-reentrant model
  2299 ;;
  2300                           
  2301                           	psect	text2
  2302   001390                     __ptext2:
  2303                           	callstack 0
  2304   001390                     ___xxtofl:
  2305                           	callstack 25
  2306                           
  2307                           ;incstack = 0
  2308                           ;___xxtofl@sign stored from wreg
  2309   001390  6E0E               	movwf	___xxtofl@sign^0,c
  2310   001392  500E               	movf	___xxtofl@sign^0,w,c
  2311   001394  B4D8               	btfsc	status,2,c
  2312   001396  EFCF  F009         	goto	u1581
  2313   00139A  EFD1  F009         	goto	u1580
  2314   00139E                     u1581:
  2315   00139E  EFF3  F009         	goto	l1072
  2316   0013A2                     u1580:
  2317   0013A2  BE09               	btfsc	(___xxtofl@val+3)^0,7,c
  2318   0013A4  EFD8  F009         	goto	u1590
  2319   0013A8  EFD6  F009         	goto	u1591
  2320   0013AC                     u1591:
  2321   0013AC  EFF3  F009         	goto	l1072
  2322   0013B0                     u1590:
  2323   0013B0  C006  F00A         	movff	___xxtofl@val,??___xxtofl
  2324   0013B4  C007  F00B         	movff	___xxtofl@val+1,??___xxtofl+1
  2325   0013B8  C008  F00C         	movff	___xxtofl@val+2,??___xxtofl+2
  2326   0013BC  C009  F00D         	movff	___xxtofl@val+3,??___xxtofl+3
  2327   0013C0  1E0A               	comf	??___xxtofl^0,f,c
  2328   0013C2  1E0B               	comf	(??___xxtofl+1)^0,f,c
  2329   0013C4  1E0C               	comf	(??___xxtofl+2)^0,f,c
  2330   0013C6  1E0D               	comf	(??___xxtofl+3)^0,f,c
  2331   0013C8  2A0A               	incf	??___xxtofl^0,f,c
  2332   0013CA  0E00               	movlw	0
  2333   0013CC  220B               	addwfc	(??___xxtofl+1)^0,f,c
  2334   0013CE  220C               	addwfc	(??___xxtofl+2)^0,f,c
  2335   0013D0  220D               	addwfc	(??___xxtofl+3)^0,f,c
  2336   0013D2  C00A  F010         	movff	??___xxtofl,___xxtofl@arg
  2337   0013D6  C00B  F011         	movff	??___xxtofl+1,___xxtofl@arg+1
  2338   0013DA  C00C  F012         	movff	??___xxtofl+2,___xxtofl@arg+2
  2339   0013DE  C00D  F013         	movff	??___xxtofl+3,___xxtofl@arg+3
  2340   0013E2  EFFB  F009         	goto	l2142
  2341   0013E6                     l1072:
  2342   0013E6  C006  F010         	movff	___xxtofl@val,___xxtofl@arg
  2343   0013EA  C007  F011         	movff	___xxtofl@val+1,___xxtofl@arg+1
  2344   0013EE  C008  F012         	movff	___xxtofl@val+2,___xxtofl@arg+2
  2345   0013F2  C009  F013         	movff	___xxtofl@val+3,___xxtofl@arg+3
  2346   0013F6                     l2142:
  2347   0013F6  5006               	movf	___xxtofl@val^0,w,c
  2348   0013F8  1007               	iorwf	(___xxtofl@val+1)^0,w,c
  2349   0013FA  1008               	iorwf	(___xxtofl@val+2)^0,w,c
  2350   0013FC  1009               	iorwf	(___xxtofl@val+3)^0,w,c
  2351   0013FE  A4D8               	btfss	status,2,c
  2352   001400  EF04  F00A         	goto	u1601
  2353   001404  EF06  F00A         	goto	u1600
  2354   001408                     u1601:
  2355   001408  EF10  F00A         	goto	l2148
  2356   00140C                     u1600:
  2357   00140C  0E00               	movlw	0
  2358   00140E  6E06               	movwf	?___xxtofl^0,c
  2359   001410  0E00               	movlw	0
  2360   001412  6E07               	movwf	(?___xxtofl+1)^0,c
  2361   001414  0E00               	movlw	0
  2362   001416  6E08               	movwf	(?___xxtofl+2)^0,c
  2363   001418  0E00               	movlw	0
  2364   00141A  6E09               	movwf	(?___xxtofl+3)^0,c
  2365   00141C  EFA1  F00A         	goto	l1075
  2366   001420                     l2148:
  2367   001420  0E96               	movlw	150
  2368   001422  6E0F               	movwf	___xxtofl@exp^0,c
  2369   001424  EF1A  F00A         	goto	l2152
  2370   001428                     l2150:
  2371   001428  2A0F               	incf	___xxtofl@exp^0,f,c
  2372   00142A  90D8               	bcf	status,0,c
  2373   00142C  3213               	rrcf	(___xxtofl@arg+3)^0,f,c
  2374   00142E  3212               	rrcf	(___xxtofl@arg+2)^0,f,c
  2375   001430  3211               	rrcf	(___xxtofl@arg+1)^0,f,c
  2376   001432  3210               	rrcf	___xxtofl@arg^0,f,c
  2377   001434                     l2152:
  2378   001434  0E00               	movlw	0
  2379   001436  1410               	andwf	___xxtofl@arg^0,w,c
  2380   001438  6E0A               	movwf	??___xxtofl^0,c
  2381   00143A  0E00               	movlw	0
  2382   00143C  1411               	andwf	(___xxtofl@arg+1)^0,w,c
  2383   00143E  6E0B               	movwf	(??___xxtofl+1)^0,c
  2384   001440  0E00               	movlw	0
  2385   001442  1412               	andwf	(___xxtofl@arg+2)^0,w,c
  2386   001444  6E0C               	movwf	(??___xxtofl+2)^0,c
  2387   001446  0EFE               	movlw	254
  2388   001448  1413               	andwf	(___xxtofl@arg+3)^0,w,c
  2389   00144A  6E0D               	movwf	(??___xxtofl+3)^0,c
  2390   00144C  500A               	movf	??___xxtofl^0,w,c
  2391   00144E  100B               	iorwf	(??___xxtofl+1)^0,w,c
  2392   001450  100C               	iorwf	(??___xxtofl+2)^0,w,c
  2393   001452  100D               	iorwf	(??___xxtofl+3)^0,w,c
  2394   001454  A4D8               	btfss	status,2,c
  2395   001456  EF2F  F00A         	goto	u1611
  2396   00145A  EF31  F00A         	goto	u1610
  2397   00145E                     u1611:
  2398   00145E  EF14  F00A         	goto	l2150
  2399   001462                     u1610:
  2400   001462  EF3F  F00A         	goto	l1079
  2401   001466                     l2154:
  2402   001466  2A0F               	incf	___xxtofl@exp^0,f,c
  2403   001468  0E01               	movlw	1
  2404   00146A  2610               	addwf	___xxtofl@arg^0,f,c
  2405   00146C  0E00               	movlw	0
  2406   00146E  2211               	addwfc	(___xxtofl@arg+1)^0,f,c
  2407   001470  2212               	addwfc	(___xxtofl@arg+2)^0,f,c
  2408   001472  2213               	addwfc	(___xxtofl@arg+3)^0,f,c
  2409   001474  90D8               	bcf	status,0,c
  2410   001476  3213               	rrcf	(___xxtofl@arg+3)^0,f,c
  2411   001478  3212               	rrcf	(___xxtofl@arg+2)^0,f,c
  2412   00147A  3211               	rrcf	(___xxtofl@arg+1)^0,f,c
  2413   00147C  3210               	rrcf	___xxtofl@arg^0,f,c
  2414   00147E                     l1079:
  2415   00147E  0E00               	movlw	0
  2416   001480  1410               	andwf	___xxtofl@arg^0,w,c
  2417   001482  6E0A               	movwf	??___xxtofl^0,c
  2418   001484  0E00               	movlw	0
  2419   001486  1411               	andwf	(___xxtofl@arg+1)^0,w,c
  2420   001488  6E0B               	movwf	(??___xxtofl+1)^0,c
  2421   00148A  0E00               	movlw	0
  2422   00148C  1412               	andwf	(___xxtofl@arg+2)^0,w,c
  2423   00148E  6E0C               	movwf	(??___xxtofl+2)^0,c
  2424   001490  0EFF               	movlw	255
  2425   001492  1413               	andwf	(___xxtofl@arg+3)^0,w,c
  2426   001494  6E0D               	movwf	(??___xxtofl+3)^0,c
  2427   001496  500A               	movf	??___xxtofl^0,w,c
  2428   001498  100B               	iorwf	(??___xxtofl+1)^0,w,c
  2429   00149A  100C               	iorwf	(??___xxtofl+2)^0,w,c
  2430   00149C  100D               	iorwf	(??___xxtofl+3)^0,w,c
  2431   00149E  A4D8               	btfss	status,2,c
  2432   0014A0  EF54  F00A         	goto	u1621
  2433   0014A4  EF56  F00A         	goto	u1620
  2434   0014A8                     u1621:
  2435   0014A8  EF33  F00A         	goto	l2154
  2436   0014AC                     u1620:
  2437   0014AC  EF5E  F00A         	goto	l2162
  2438   0014B0                     l2160:
  2439   0014B0  060F               	decf	___xxtofl@exp^0,f,c
  2440   0014B2  90D8               	bcf	status,0,c
  2441   0014B4  3610               	rlcf	___xxtofl@arg^0,f,c
  2442   0014B6  3611               	rlcf	(___xxtofl@arg+1)^0,f,c
  2443   0014B8  3612               	rlcf	(___xxtofl@arg+2)^0,f,c
  2444   0014BA  3613               	rlcf	(___xxtofl@arg+3)^0,f,c
  2445   0014BC                     l2162:
  2446   0014BC  BE12               	btfsc	(___xxtofl@arg+2)^0,7,c
  2447   0014BE  EF63  F00A         	goto	u1631
  2448   0014C2  EF65  F00A         	goto	u1630
  2449   0014C6                     u1631:
  2450   0014C6  EF6D  F00A         	goto	l1086
  2451   0014CA                     u1630:
  2452   0014CA  0E02               	movlw	2
  2453   0014CC  600F               	cpfslt	___xxtofl@exp^0,c
  2454   0014CE  EF6B  F00A         	goto	u1641
  2455   0014D2  EF6D  F00A         	goto	u1640
  2456   0014D6                     u1641:
  2457   0014D6  EF58  F00A         	goto	l2160
  2458   0014DA                     u1640:
  2459   0014DA                     l1086:
  2460   0014DA  B00F               	btfsc	___xxtofl@exp^0,0,c
  2461   0014DC  EF72  F00A         	goto	u1651
  2462   0014E0  EF74  F00A         	goto	u1650
  2463   0014E4                     u1651:
  2464   0014E4  EF75  F00A         	goto	l2168
  2465   0014E8                     u1650:
  2466   0014E8  9E12               	bcf	(___xxtofl@arg+2)^0,7,c
  2467   0014EA                     l2168:
  2468   0014EA  90D8               	bcf	status,0,c
  2469   0014EC  320F               	rrcf	___xxtofl@exp^0,f,c
  2470   0014EE  C00F  F00A         	movff	___xxtofl@exp,??___xxtofl
  2471   0014F2  6A0B               	clrf	(??___xxtofl+1)^0,c
  2472   0014F4  6A0C               	clrf	(??___xxtofl+2)^0,c
  2473   0014F6  6A0D               	clrf	(??___xxtofl+3)^0,c
  2474   0014F8  C00A  F00D         	movff	??___xxtofl,??___xxtofl+3
  2475   0014FC  6A0C               	clrf	(??___xxtofl+2)^0,c
  2476   0014FE  6A0B               	clrf	(??___xxtofl+1)^0,c
  2477   001500  6A0A               	clrf	??___xxtofl^0,c
  2478   001502  500A               	movf	??___xxtofl^0,w,c
  2479   001504  1210               	iorwf	___xxtofl@arg^0,f,c
  2480   001506  500B               	movf	(??___xxtofl+1)^0,w,c
  2481   001508  1211               	iorwf	(___xxtofl@arg+1)^0,f,c
  2482   00150A  500C               	movf	(??___xxtofl+2)^0,w,c
  2483   00150C  1212               	iorwf	(___xxtofl@arg+2)^0,f,c
  2484   00150E  500D               	movf	(??___xxtofl+3)^0,w,c
  2485   001510  1213               	iorwf	(___xxtofl@arg+3)^0,f,c
  2486   001512  500E               	movf	___xxtofl@sign^0,w,c
  2487   001514  B4D8               	btfsc	status,2,c
  2488   001516  EF8F  F00A         	goto	u1661
  2489   00151A  EF91  F00A         	goto	u1660
  2490   00151E                     u1661:
  2491   00151E  EF99  F00A         	goto	l2178
  2492   001522                     u1660:
  2493   001522  BE09               	btfsc	(___xxtofl@val+3)^0,7,c
  2494   001524  EF98  F00A         	goto	u1670
  2495   001528  EF96  F00A         	goto	u1671
  2496   00152C                     u1671:
  2497   00152C  EF99  F00A         	goto	l2178
  2498   001530                     u1670:
  2499   001530  8E13               	bsf	(___xxtofl@arg+3)^0,7,c
  2500   001532                     l2178:
  2501   001532  C010  F006         	movff	___xxtofl@arg,?___xxtofl
  2502   001536  C011  F007         	movff	___xxtofl@arg+1,?___xxtofl+1
  2503   00153A  C012  F008         	movff	___xxtofl@arg+2,?___xxtofl+2
  2504   00153E  C013  F009         	movff	___xxtofl@arg+3,?___xxtofl+3
  2505   001542                     l1075:
  2506   001542  0012               	return		;funcret
  2507   001544                     __end_of___xxtofl:
  2508                           	callstack 0
  2509                           
  2510 ;; *************** function ___fltol *****************
  2511 ;; Defined at:
  2512 ;;		line 43 in file "C:\Program Files\Microchip\xc8\v3.10\pic\sources\c99\common\fltol.c"
  2513 ;; Parameters:    Size  Location     Type
  2514 ;;  f1              4   43[COMRAM] unsigned char 
  2515 ;; Auto vars:     Size  Location     Type
  2516 ;;  exp1            1   52[COMRAM] unsigned char 
  2517 ;;  sign1           1   51[COMRAM] unsigned char 
  2518 ;; Return value:  Size  Location     Type
  2519 ;;                  4   43[COMRAM] long 
  2520 ;; Registers used:
  2521 ;;		wreg, status,2, status,0
  2522 ;; Tracked objects:
  2523 ;;		On entry : 0/0
  2524 ;;		On exit  : 0/0
  2525 ;;		Unchanged: 0/0
  2526 ;; Data sizes:     COMRAM   BANK0   BANK1   BANK2   BANK3   BANK4   BANK5   BANK6   BANK7   BANK8   BANK9  BANK10  BANK1
      +1  BANK12  BANK13  BANK14  BANK15
  2527 ;;      Params:         4       0       0       0       0       0       0       0       0       0       0       0       
      +0       0       0       0       0
  2528 ;;      Locals:         2       0       0       0       0       0       0       0       0       0       0       0       
      +0       0       0       0       0
  2529 ;;      Temps:          4       0       0       0       0       0       0       0       0       0       0       0       
      +0       0       0       0       0
  2530 ;;      Totals:        10       0       0       0       0       0       0       0       0       0       0       0       
      +0       0       0       0       0
  2531 ;;Total ram usage:       10 bytes
  2532 ;; Hardware stack levels used: 1
  2533 ;; Hardware stack levels required when called: 4
  2534 ;; This function calls:
  2535 ;;		Nothing
  2536 ;; This function is called by:
  2537 ;;		_calc_dist
  2538 ;; This function uses a non-reentrant model
  2539 ;;
  2540                           
  2541                           	psect	text3
  2542   001544                     __ptext3:
  2543                           	callstack 0
  2544   001544                     ___fltol:
  2545                           	callstack 25
  2546   001544  342F               	rlcf	(___fltol@f1+2)^0,w,c
  2547   001546  3430               	rlcf	(___fltol@f1+3)^0,w,c
  2548   001548  6E36               	movwf	___fltol@exp1^0,c
  2549   00154A  5036               	movf	___fltol@exp1^0,w,c
  2550   00154C  A4D8               	btfss	status,2,c
  2551   00154E  EFAB  F00A         	goto	u1511
  2552   001552  EFAD  F00A         	goto	u1510
  2553   001556                     u1511:
  2554   001556  EFB7  F00A         	goto	l2098
  2555   00155A                     u1510:
  2556   00155A                     l2094:
  2557   00155A  0E00               	movlw	0
  2558   00155C  6E2D               	movwf	?___fltol^0,c
  2559   00155E  0E00               	movlw	0
  2560   001560  6E2E               	movwf	(?___fltol+1)^0,c
  2561   001562  0E00               	movlw	0
  2562   001564  6E2F               	movwf	(?___fltol+2)^0,c
  2563   001566  0E00               	movlw	0
  2564   001568  6E30               	movwf	(?___fltol+3)^0,c
  2565   00156A  EF24  F00B         	goto	l714
  2566   00156E                     l2098:
  2567   00156E  C02D  F031         	movff	___fltol@f1,??___fltol
  2568   001572  C02E  F032         	movff	___fltol@f1+1,??___fltol+1
  2569   001576  C02F  F033         	movff	___fltol@f1+2,??___fltol+2
  2570   00157A  C030  F034         	movff	___fltol@f1+3,??___fltol+3
  2571   00157E  0E20               	movlw	32
  2572   001580  EFC7  F00A         	goto	u1520
  2573   001584                     u1525:
  2574   001584  90D8               	bcf	status,0,c
  2575   001586  3234               	rrcf	(??___fltol+3)^0,f,c
  2576   001588  3233               	rrcf	(??___fltol+2)^0,f,c
  2577   00158A  3232               	rrcf	(??___fltol+1)^0,f,c
  2578   00158C  3231               	rrcf	??___fltol^0,f,c
  2579   00158E                     u1520:
  2580   00158E  2EE8               	decfsz	wreg,f,c
  2581   001590  EFC2  F00A         	goto	u1525
  2582   001594  5031               	movf	??___fltol^0,w,c
  2583   001596  6E35               	movwf	___fltol@sign1^0,c
  2584   001598  8E2F               	bsf	(___fltol@f1+2)^0,7,c
  2585   00159A  0EFF               	movlw	255
  2586   00159C  162D               	andwf	___fltol@f1^0,f,c
  2587   00159E  0EFF               	movlw	255
  2588   0015A0  162E               	andwf	(___fltol@f1+1)^0,f,c
  2589   0015A2  0EFF               	movlw	255
  2590   0015A4  162F               	andwf	(___fltol@f1+2)^0,f,c
  2591   0015A6  0E00               	movlw	0
  2592   0015A8  1630               	andwf	(___fltol@f1+3)^0,f,c
  2593   0015AA  0E96               	movlw	150
  2594   0015AC  5E36               	subwf	___fltol@exp1^0,f,c
  2595   0015AE  BE36               	btfsc	___fltol@exp1^0,7,c
  2596   0015B0  EFDE  F00A         	goto	u1530
  2597   0015B4  EFDC  F00A         	goto	u1531
  2598   0015B8                     u1531:
  2599   0015B8  EFF4  F00A         	goto	l2118
  2600   0015BC                     u1530:
  2601   0015BC  5036               	movf	___fltol@exp1^0,w,c
  2602   0015BE  0A80               	xorlw	128
  2603   0015C0  0F97               	addlw	151
  2604   0015C2  B0D8               	btfsc	status,0,c
  2605   0015C4  EFE6  F00A         	goto	u1541
  2606   0015C8  EFE8  F00A         	goto	u1540
  2607   0015CC                     u1541:
  2608   0015CC  EFEA  F00A         	goto	l2114
  2609   0015D0                     u1540:
  2610   0015D0  EFAD  F00A         	goto	l2094
  2611   0015D4                     l2114:
  2612   0015D4  90D8               	bcf	status,0,c
  2613   0015D6  3230               	rrcf	(___fltol@f1+3)^0,f,c
  2614   0015D8  322F               	rrcf	(___fltol@f1+2)^0,f,c
  2615   0015DA  322E               	rrcf	(___fltol@f1+1)^0,f,c
  2616   0015DC  322D               	rrcf	___fltol@f1^0,f,c
  2617   0015DE  3E36               	incfsz	___fltol@exp1^0,f,c
  2618   0015E0  EFEA  F00A         	goto	l2114
  2619   0015E4  EF0C  F00B         	goto	l2128
  2620   0015E8                     l2118:
  2621   0015E8  0E1F               	movlw	31
  2622   0015EA  6436               	cpfsgt	___fltol@exp1^0,c
  2623   0015EC  EFFA  F00A         	goto	u1551
  2624   0015F0  EFFC  F00A         	goto	u1550
  2625   0015F4                     u1551:
  2626   0015F4  EF04  F00B         	goto	l2126
  2627   0015F8                     u1550:
  2628   0015F8  EFAD  F00A         	goto	l2094
  2629   0015FC                     l2124:
  2630   0015FC  90D8               	bcf	status,0,c
  2631   0015FE  362D               	rlcf	___fltol@f1^0,f,c
  2632   001600  362E               	rlcf	(___fltol@f1+1)^0,f,c
  2633   001602  362F               	rlcf	(___fltol@f1+2)^0,f,c
  2634   001604  3630               	rlcf	(___fltol@f1+3)^0,f,c
  2635   001606  0636               	decf	___fltol@exp1^0,f,c
  2636   001608                     l2126:
  2637   001608  5036               	movf	___fltol@exp1^0,w,c
  2638   00160A  A4D8               	btfss	status,2,c
  2639   00160C  EF0A  F00B         	goto	u1561
  2640   001610  EF0C  F00B         	goto	u1560
  2641   001614                     u1561:
  2642   001614  EFFE  F00A         	goto	l2124
  2643   001618                     u1560:
  2644   001618                     l2128:
  2645   001618  5035               	movf	___fltol@sign1^0,w,c
  2646   00161A  B4D8               	btfsc	status,2,c
  2647   00161C  EF12  F00B         	goto	u1571
  2648   001620  EF14  F00B         	goto	u1570
  2649   001624                     u1571:
  2650   001624  EF1C  F00B         	goto	l2132
  2651   001628                     u1570:
  2652   001628  1E30               	comf	(___fltol@f1+3)^0,f,c
  2653   00162A  1E2F               	comf	(___fltol@f1+2)^0,f,c
  2654   00162C  1E2E               	comf	(___fltol@f1+1)^0,f,c
  2655   00162E  6C2D               	negf	___fltol@f1^0,c
  2656   001630  0E00               	movlw	0
  2657   001632  222E               	addwfc	(___fltol@f1+1)^0,f,c
  2658   001634  222F               	addwfc	(___fltol@f1+2)^0,f,c
  2659   001636  2230               	addwfc	(___fltol@f1+3)^0,f,c
  2660   001638                     l2132:
  2661   001638  C02D  F02D         	movff	___fltol@f1,?___fltol
  2662   00163C  C02E  F02E         	movff	___fltol@f1+1,?___fltol+1
  2663   001640  C02F  F02F         	movff	___fltol@f1+2,?___fltol+2
  2664   001644  C030  F030         	movff	___fltol@f1+3,?___fltol+3
  2665   001648                     l714:
  2666   001648  0012               	return		;funcret
  2667   00164A                     __end_of___fltol:
  2668                           	callstack 0
  2669                           
  2670 ;; *************** function ___fldiv *****************
  2671 ;; Defined at:
  2672 ;;		line 11 in file "C:\Program Files\Microchip\xc8\v3.10\pic\sources\c99\common\sprcdiv.c"
  2673 ;; Parameters:    Size  Location     Type
  2674 ;;  b               4   18[COMRAM] long 
  2675 ;;  a               4   22[COMRAM] long 
  2676 ;; Auto vars:     Size  Location     Type
  2677 ;;  grs             4   37[COMRAM] unsigned long 
  2678 ;;  rem             4   30[COMRAM] unsigned long 
  2679 ;;  new_exp         2   35[COMRAM] short 
  2680 ;;  aexp            1   42[COMRAM] unsigned char 
  2681 ;;  bexp            1   41[COMRAM] unsigned char 
  2682 ;;  sign            1   34[COMRAM] unsigned char 
  2683 ;; Return value:  Size  Location     Type
  2684 ;;                  4   18[COMRAM] unsigned char 
  2685 ;; Registers used:
  2686 ;;		wreg, status,2, status,0
  2687 ;; Tracked objects:
  2688 ;;		On entry : 0/0
  2689 ;;		On exit  : 0/0
  2690 ;;		Unchanged: 0/0
  2691 ;; Data sizes:     COMRAM   BANK0   BANK1   BANK2   BANK3   BANK4   BANK5   BANK6   BANK7   BANK8   BANK9  BANK10  BANK1
      +1  BANK12  BANK13  BANK14  BANK15
  2692 ;;      Params:         8       0       0       0       0       0       0       0       0       0       0       0       
      +0       0       0       0       0
  2693 ;;      Locals:        13       0       0       0       0       0       0       0       0       0       0       0       
      +0       0       0       0       0
  2694 ;;      Temps:          4       0       0       0       0       0       0       0       0       0       0       0       
      +0       0       0       0       0
  2695 ;;      Totals:        25       0       0       0       0       0       0       0       0       0       0       0       
      +0       0       0       0       0
  2696 ;;Total ram usage:       25 bytes
  2697 ;; Hardware stack levels used: 1
  2698 ;; Hardware stack levels required when called: 4
  2699 ;; This function calls:
  2700 ;;		Nothing
  2701 ;; This function is called by:
  2702 ;;		_calc_dist
  2703 ;; This function uses a non-reentrant model
  2704 ;;
  2705                           
  2706                           	psect	text4
  2707   001002                     __ptext4:
  2708                           	callstack 0
  2709   001002                     ___fldiv:
  2710                           	callstack 25
  2711   001002  5017               	movf	(___fldiv@b+3)^0,w,c
  2712   001004  0B80               	andlw	128
  2713   001006  6E24               	movwf	___fldiv@sign^0,c
  2714   001008  5017               	movf	(___fldiv@b+3)^0,w,c
  2715   00100A  2417               	addwf	(___fldiv@b+3)^0,w,c
  2716   00100C  6E2B               	movwf	___fldiv@bexp^0,c
  2717   00100E  AE16               	btfss	(___fldiv@b+2)^0,7,c
  2718   001010  EF0C  F008         	goto	u1281
  2719   001014  EF0E  F008         	goto	u1280
  2720   001018                     u1281:
  2721   001018  EF0F  F008         	goto	l1962
  2722   00101C                     u1280:
  2723   00101C  802B               	bsf	___fldiv@bexp^0,0,c
  2724   00101E                     l1962:
  2725   00101E  502B               	movf	___fldiv@bexp^0,w,c
  2726   001020  B4D8               	btfsc	status,2,c
  2727   001022  EF15  F008         	goto	u1291
  2728   001026  EF17  F008         	goto	u1290
  2729   00102A                     u1291:
  2730   00102A  EF2B  F008         	goto	l1972
  2731   00102E                     u1290:
  2732   00102E  282B               	incf	___fldiv@bexp^0,w,c
  2733   001030  A4D8               	btfss	status,2,c
  2734   001032  EF1D  F008         	goto	u1301
  2735   001036  EF1F  F008         	goto	u1300
  2736   00103A                     u1301:
  2737   00103A  EF27  F008         	goto	l1968
  2738   00103E                     u1300:
  2739   00103E  0E00               	movlw	0
  2740   001040  6E14               	movwf	___fldiv@b^0,c
  2741   001042  0E00               	movlw	0
  2742   001044  6E15               	movwf	(___fldiv@b+1)^0,c
  2743   001046  0E00               	movlw	0
  2744   001048  6E16               	movwf	(___fldiv@b+2)^0,c
  2745   00104A  0E00               	movlw	0
  2746   00104C  6E17               	movwf	(___fldiv@b+3)^0,c
  2747   00104E                     l1968:
  2748   00104E  8E16               	bsf	(___fldiv@b+2)^0,7,c
  2749   001050  6A17               	clrf	(___fldiv@b+3)^0,c
  2750   001052  EF33  F008         	goto	l1974
  2751   001056                     l1972:
  2752   001056  0E00               	movlw	0
  2753   001058  6E14               	movwf	___fldiv@b^0,c
  2754   00105A  0E00               	movlw	0
  2755   00105C  6E15               	movwf	(___fldiv@b+1)^0,c
  2756   00105E  0E00               	movlw	0
  2757   001060  6E16               	movwf	(___fldiv@b+2)^0,c
  2758   001062  0E00               	movlw	0
  2759   001064  6E17               	movwf	(___fldiv@b+3)^0,c
  2760   001066                     l1974:
  2761   001066  501B               	movf	(___fldiv@a+3)^0,w,c
  2762   001068  0B80               	andlw	128
  2763   00106A  1A24               	xorwf	___fldiv@sign^0,f,c
  2764   00106C  501B               	movf	(___fldiv@a+3)^0,w,c
  2765   00106E  241B               	addwf	(___fldiv@a+3)^0,w,c
  2766   001070  6E2C               	movwf	___fldiv@aexp^0,c
  2767   001072  AE1A               	btfss	(___fldiv@a+2)^0,7,c
  2768   001074  EF3E  F008         	goto	u1311
  2769   001078  EF40  F008         	goto	u1310
  2770   00107C                     u1311:
  2771   00107C  EF41  F008         	goto	l1982
  2772   001080                     u1310:
  2773   001080  802C               	bsf	___fldiv@aexp^0,0,c
  2774   001082                     l1982:
  2775   001082  502C               	movf	___fldiv@aexp^0,w,c
  2776   001084  B4D8               	btfsc	status,2,c
  2777   001086  EF47  F008         	goto	u1321
  2778   00108A  EF49  F008         	goto	u1320
  2779   00108E                     u1321:
  2780   00108E  EF5D  F008         	goto	l1992
  2781   001092                     u1320:
  2782   001092  282C               	incf	___fldiv@aexp^0,w,c
  2783   001094  A4D8               	btfss	status,2,c
  2784   001096  EF4F  F008         	goto	u1331
  2785   00109A  EF51  F008         	goto	u1330
  2786   00109E                     u1331:
  2787   00109E  EF59  F008         	goto	l1988
  2788   0010A2                     u1330:
  2789   0010A2  0E00               	movlw	0
  2790   0010A4  6E18               	movwf	___fldiv@a^0,c
  2791   0010A6  0E00               	movlw	0
  2792   0010A8  6E19               	movwf	(___fldiv@a+1)^0,c
  2793   0010AA  0E00               	movlw	0
  2794   0010AC  6E1A               	movwf	(___fldiv@a+2)^0,c
  2795   0010AE  0E00               	movlw	0
  2796   0010B0  6E1B               	movwf	(___fldiv@a+3)^0,c
  2797   0010B2                     l1988:
  2798   0010B2  8E1A               	bsf	(___fldiv@a+2)^0,7,c
  2799   0010B4  6A1B               	clrf	(___fldiv@a+3)^0,c
  2800   0010B6  EF65  F008         	goto	l1994
  2801   0010BA                     l1992:
  2802   0010BA  0E00               	movlw	0
  2803   0010BC  6E18               	movwf	___fldiv@a^0,c
  2804   0010BE  0E00               	movlw	0
  2805   0010C0  6E19               	movwf	(___fldiv@a+1)^0,c
  2806   0010C2  0E00               	movlw	0
  2807   0010C4  6E1A               	movwf	(___fldiv@a+2)^0,c
  2808   0010C6  0E00               	movlw	0
  2809   0010C8  6E1B               	movwf	(___fldiv@a+3)^0,c
  2810   0010CA                     l1994:
  2811   0010CA  5018               	movf	___fldiv@a^0,w,c
  2812   0010CC  1019               	iorwf	(___fldiv@a+1)^0,w,c
  2813   0010CE  101A               	iorwf	(___fldiv@a+2)^0,w,c
  2814   0010D0  101B               	iorwf	(___fldiv@a+3)^0,w,c
  2815   0010D2  A4D8               	btfss	status,2,c
  2816   0010D4  EF6E  F008         	goto	u1341
  2817   0010D8  EF70  F008         	goto	u1340
  2818   0010DC                     u1341:
  2819   0010DC  EF88  F008         	goto	l2006
  2820   0010E0                     u1340:
  2821   0010E0  0E00               	movlw	0
  2822   0010E2  6E14               	movwf	___fldiv@b^0,c
  2823   0010E4  0E00               	movlw	0
  2824   0010E6  6E15               	movwf	(___fldiv@b+1)^0,c
  2825   0010E8  0E00               	movlw	0
  2826   0010EA  6E16               	movwf	(___fldiv@b+2)^0,c
  2827   0010EC  0E00               	movlw	0
  2828   0010EE  6E17               	movwf	(___fldiv@b+3)^0,c
  2829   0010F0  0E80               	movlw	128
  2830   0010F2  1216               	iorwf	(___fldiv@b+2)^0,f,c
  2831   0010F4  0E7F               	movlw	127
  2832   0010F6  1217               	iorwf	(___fldiv@b+3)^0,f,c
  2833   0010F8                     l2000:
  2834   0010F8  5024               	movf	___fldiv@sign^0,w,c
  2835   0010FA  1217               	iorwf	(___fldiv@b+3)^0,f,c
  2836   0010FC  C014  F014         	movff	___fldiv@b,?___fldiv
  2837   001100  C015  F015         	movff	___fldiv@b+1,?___fldiv+1
  2838   001104  C016  F016         	movff	___fldiv@b+2,?___fldiv+2
  2839   001108  C017  F017         	movff	___fldiv@b+3,?___fldiv+3
  2840   00110C  EFC7  F009         	goto	l999
  2841   001110                     l2006:
  2842   001110  502B               	movf	___fldiv@bexp^0,w,c
  2843   001112  A4D8               	btfss	status,2,c
  2844   001114  EF8E  F008         	goto	u1351
  2845   001118  EF90  F008         	goto	u1350
  2846   00111C                     u1351:
  2847   00111C  EF9A  F008         	goto	l2014
  2848   001120                     u1350:
  2849   001120  0E00               	movlw	0
  2850   001122  6E14               	movwf	?___fldiv^0,c
  2851   001124  0E00               	movlw	0
  2852   001126  6E15               	movwf	(?___fldiv+1)^0,c
  2853   001128  0E00               	movlw	0
  2854   00112A  6E16               	movwf	(?___fldiv+2)^0,c
  2855   00112C  0E00               	movlw	0
  2856   00112E  6E17               	movwf	(?___fldiv+3)^0,c
  2857   001130  EFC7  F009         	goto	l999
  2858   001134                     l2014:
  2859   001134  502C               	movf	___fldiv@aexp^0,w,c
  2860   001136  C02B  F01C         	movff	___fldiv@bexp,??___fldiv
  2861   00113A  6A1D               	clrf	(??___fldiv+1)^0,c
  2862   00113C  5E1C               	subwf	??___fldiv^0,f,c
  2863   00113E  0E00               	movlw	0
  2864   001140  5A1D               	subwfb	(??___fldiv+1)^0,f,c
  2865   001142  0E7F               	movlw	127
  2866   001144  241C               	addwf	??___fldiv^0,w,c
  2867   001146  6E25               	movwf	___fldiv@new_exp^0,c
  2868   001148  0E00               	movlw	0
  2869   00114A  201D               	addwfc	(??___fldiv+1)^0,w,c
  2870   00114C  6E26               	movwf	(___fldiv@new_exp+1)^0,c
  2871   00114E  C014  F020         	movff	___fldiv@b,___fldiv@rem
  2872   001152  C015  F021         	movff	___fldiv@b+1,___fldiv@rem+1
  2873   001156  C016  F022         	movff	___fldiv@b+2,___fldiv@rem+2
  2874   00115A  C017  F023         	movff	___fldiv@b+3,___fldiv@rem+3
  2875   00115E  0E00               	movlw	0
  2876   001160  6E14               	movwf	___fldiv@b^0,c
  2877   001162  0E00               	movlw	0
  2878   001164  6E15               	movwf	(___fldiv@b+1)^0,c
  2879   001166  0E00               	movlw	0
  2880   001168  6E16               	movwf	(___fldiv@b+2)^0,c
  2881   00116A  0E00               	movlw	0
  2882   00116C  6E17               	movwf	(___fldiv@b+3)^0,c
  2883   00116E  0E00               	movlw	0
  2884   001170  6E27               	movwf	___fldiv@grs^0,c
  2885   001172  0E00               	movlw	0
  2886   001174  6E28               	movwf	(___fldiv@grs+1)^0,c
  2887   001176  0E00               	movlw	0
  2888   001178  6E29               	movwf	(___fldiv@grs+2)^0,c
  2889   00117A  0E00               	movlw	0
  2890   00117C  6E2A               	movwf	(___fldiv@grs+3)^0,c
  2891   00117E  6A2C               	clrf	___fldiv@aexp^0,c
  2892   001180  EFFA  F008         	goto	l1001
  2893   001184                     l2024:
  2894   001184  502C               	movf	___fldiv@aexp^0,w,c
  2895   001186  B4D8               	btfsc	status,2,c
  2896   001188  EFC8  F008         	goto	u1361
  2897   00118C  EFCA  F008         	goto	u1360
  2898   001190                     u1361:
  2899   001190  EFE1  F008         	goto	l2032
  2900   001194                     u1360:
  2901   001194  90D8               	bcf	status,0,c
  2902   001196  3620               	rlcf	___fldiv@rem^0,f,c
  2903   001198  3621               	rlcf	(___fldiv@rem+1)^0,f,c
  2904   00119A  3622               	rlcf	(___fldiv@rem+2)^0,f,c
  2905   00119C  3623               	rlcf	(___fldiv@rem+3)^0,f,c
  2906   00119E  90D8               	bcf	status,0,c
  2907   0011A0  3614               	rlcf	___fldiv@b^0,f,c
  2908   0011A2  3615               	rlcf	(___fldiv@b+1)^0,f,c
  2909   0011A4  3616               	rlcf	(___fldiv@b+2)^0,f,c
  2910   0011A6  3617               	rlcf	(___fldiv@b+3)^0,f,c
  2911   0011A8  AE2A               	btfss	(___fldiv@grs+3)^0,7,c
  2912   0011AA  EFD9  F008         	goto	u1371
  2913   0011AE  EFDB  F008         	goto	u1370
  2914   0011B2                     u1371:
  2915   0011B2  EFDC  F008         	goto	l1004
  2916   0011B6                     u1370:
  2917   0011B6  8014               	bsf	___fldiv@b^0,0,c
  2918   0011B8                     l1004:
  2919   0011B8  90D8               	bcf	status,0,c
  2920   0011BA  3627               	rlcf	___fldiv@grs^0,f,c
  2921   0011BC  3628               	rlcf	(___fldiv@grs+1)^0,f,c
  2922   0011BE  3629               	rlcf	(___fldiv@grs+2)^0,f,c
  2923   0011C0  362A               	rlcf	(___fldiv@grs+3)^0,f,c
  2924   0011C2                     l2032:
  2925   0011C2  5018               	movf	___fldiv@a^0,w,c
  2926   0011C4  5C20               	subwf	___fldiv@rem^0,w,c
  2927   0011C6  5019               	movf	(___fldiv@a+1)^0,w,c
  2928   0011C8  5821               	subwfb	(___fldiv@rem+1)^0,w,c
  2929   0011CA  501A               	movf	(___fldiv@a+2)^0,w,c
  2930   0011CC  5822               	subwfb	(___fldiv@rem+2)^0,w,c
  2931   0011CE  501B               	movf	(___fldiv@a+3)^0,w,c
  2932   0011D0  5823               	subwfb	(___fldiv@rem+3)^0,w,c
  2933   0011D2  A0D8               	btfss	status,0,c
  2934   0011D4  EFEE  F008         	goto	u1381
  2935   0011D8  EFF0  F008         	goto	u1380
  2936   0011DC                     u1381:
  2937   0011DC  EFF9  F008         	goto	l2038
  2938   0011E0                     u1380:
  2939   0011E0  8C2A               	bsf	(___fldiv@grs+3)^0,6,c
  2940   0011E2  5018               	movf	___fldiv@a^0,w,c
  2941   0011E4  5E20               	subwf	___fldiv@rem^0,f,c
  2942   0011E6  5019               	movf	(___fldiv@a+1)^0,w,c
  2943   0011E8  5A21               	subwfb	(___fldiv@rem+1)^0,f,c
  2944   0011EA  501A               	movf	(___fldiv@a+2)^0,w,c
  2945   0011EC  5A22               	subwfb	(___fldiv@rem+2)^0,f,c
  2946   0011EE  501B               	movf	(___fldiv@a+3)^0,w,c
  2947   0011F0  5A23               	subwfb	(___fldiv@rem+3)^0,f,c
  2948   0011F2                     l2038:
  2949   0011F2  2A2C               	incf	___fldiv@aexp^0,f,c
  2950   0011F4                     l1001:
  2951   0011F4  0E19               	movlw	25
  2952   0011F6  642C               	cpfsgt	___fldiv@aexp^0,c
  2953   0011F8  EF00  F009         	goto	u1391
  2954   0011FC  EF02  F009         	goto	u1390
  2955   001200                     u1391:
  2956   001200  EFC2  F008         	goto	l2024
  2957   001204                     u1390:
  2958   001204  5020               	movf	___fldiv@rem^0,w,c
  2959   001206  1021               	iorwf	(___fldiv@rem+1)^0,w,c
  2960   001208  1022               	iorwf	(___fldiv@rem+2)^0,w,c
  2961   00120A  1023               	iorwf	(___fldiv@rem+3)^0,w,c
  2962   00120C  B4D8               	btfsc	status,2,c
  2963   00120E  EF0B  F009         	goto	u1401
  2964   001212  EF0D  F009         	goto	u1400
  2965   001216                     u1401:
  2966   001216  EF25  F009         	goto	l2050
  2967   00121A                     u1400:
  2968   00121A  8027               	bsf	___fldiv@grs^0,0,c
  2969   00121C  EF25  F009         	goto	l2050
  2970   001220                     l2044:
  2971   001220  90D8               	bcf	status,0,c
  2972   001222  3614               	rlcf	___fldiv@b^0,f,c
  2973   001224  3615               	rlcf	(___fldiv@b+1)^0,f,c
  2974   001226  3616               	rlcf	(___fldiv@b+2)^0,f,c
  2975   001228  3617               	rlcf	(___fldiv@b+3)^0,f,c
  2976   00122A  AE2A               	btfss	(___fldiv@grs+3)^0,7,c
  2977   00122C  EF1A  F009         	goto	u1411
  2978   001230  EF1C  F009         	goto	u1410
  2979   001234                     u1411:
  2980   001234  EF1D  F009         	goto	l1010
  2981   001238                     u1410:
  2982   001238  8014               	bsf	___fldiv@b^0,0,c
  2983   00123A                     l1010:
  2984   00123A  90D8               	bcf	status,0,c
  2985   00123C  3627               	rlcf	___fldiv@grs^0,f,c
  2986   00123E  3628               	rlcf	(___fldiv@grs+1)^0,f,c
  2987   001240  3629               	rlcf	(___fldiv@grs+2)^0,f,c
  2988   001242  362A               	rlcf	(___fldiv@grs+3)^0,f,c
  2989   001244  0625               	decf	___fldiv@new_exp^0,f,c
  2990   001246  A0D8               	btfss	status,0,c
  2991   001248  0626               	decf	(___fldiv@new_exp+1)^0,f,c
  2992   00124A                     l2050:
  2993   00124A  AE16               	btfss	(___fldiv@b+2)^0,7,c
  2994   00124C  EF2A  F009         	goto	u1421
  2995   001250  EF2C  F009         	goto	u1420
  2996   001254                     u1421:
  2997   001254  EF10  F009         	goto	l2044
  2998   001258                     u1420:
  2999   001258  6A2C               	clrf	___fldiv@aexp^0,c
  3000   00125A  AE2A               	btfss	(___fldiv@grs+3)^0,7,c
  3001   00125C  EF32  F009         	goto	u1431
  3002   001260  EF34  F009         	goto	u1430
  3003   001264                     u1431:
  3004   001264  EF58  F009         	goto	l1012
  3005   001268                     u1430:
  3006   001268  0EFF               	movlw	255
  3007   00126A  1427               	andwf	___fldiv@grs^0,w,c
  3008   00126C  6E1C               	movwf	??___fldiv^0,c
  3009   00126E  0EFF               	movlw	255
  3010   001270  1428               	andwf	(___fldiv@grs+1)^0,w,c
  3011   001272  6E1D               	movwf	(??___fldiv+1)^0,c
  3012   001274  0EFF               	movlw	255
  3013   001276  1429               	andwf	(___fldiv@grs+2)^0,w,c
  3014   001278  6E1E               	movwf	(??___fldiv+2)^0,c
  3015   00127A  0E7F               	movlw	127
  3016   00127C  142A               	andwf	(___fldiv@grs+3)^0,w,c
  3017   00127E  6E1F               	movwf	(??___fldiv+3)^0,c
  3018   001280  501C               	movf	??___fldiv^0,w,c
  3019   001282  101D               	iorwf	(??___fldiv+1)^0,w,c
  3020   001284  101E               	iorwf	(??___fldiv+2)^0,w,c
  3021   001286  101F               	iorwf	(??___fldiv+3)^0,w,c
  3022   001288  B4D8               	btfsc	status,2,c
  3023   00128A  EF49  F009         	goto	u1441
  3024   00128E  EF4B  F009         	goto	u1440
  3025   001292                     u1441:
  3026   001292  EF4F  F009         	goto	l1013
  3027   001296                     u1440:
  3028   001296                     l2054:
  3029   001296  0E01               	movlw	1
  3030   001298  6E2C               	movwf	___fldiv@aexp^0,c
  3031   00129A  EF58  F009         	goto	l1012
  3032   00129E                     l1013:
  3033   00129E  A014               	btfss	___fldiv@b^0,0,c
  3034   0012A0  EF54  F009         	goto	u1451
  3035   0012A4  EF56  F009         	goto	u1450
  3036   0012A8                     u1451:
  3037   0012A8  EF58  F009         	goto	l1012
  3038   0012AC                     u1450:
  3039   0012AC  EF4B  F009         	goto	l2054
  3040   0012B0                     l1012:
  3041   0012B0  502C               	movf	___fldiv@aexp^0,w,c
  3042   0012B2  B4D8               	btfsc	status,2,c
  3043   0012B4  EF5E  F009         	goto	u1461
  3044   0012B8  EF60  F009         	goto	u1460
  3045   0012BC                     u1461:
  3046   0012BC  EF84  F009         	goto	l2066
  3047   0012C0                     u1460:
  3048   0012C0  0E01               	movlw	1
  3049   0012C2  2614               	addwf	___fldiv@b^0,f,c
  3050   0012C4  0E00               	movlw	0
  3051   0012C6  2215               	addwfc	(___fldiv@b+1)^0,f,c
  3052   0012C8  2216               	addwfc	(___fldiv@b+2)^0,f,c
  3053   0012CA  2217               	addwfc	(___fldiv@b+3)^0,f,c
  3054   0012CC  A017               	btfss	(___fldiv@b+3)^0,0,c
  3055   0012CE  EF6B  F009         	goto	u1471
  3056   0012D2  EF6D  F009         	goto	u1470
  3057   0012D6                     u1471:
  3058   0012D6  EF84  F009         	goto	l2066
  3059   0012DA                     u1470:
  3060   0012DA  C014  F01C         	movff	___fldiv@b,??___fldiv
  3061   0012DE  C015  F01D         	movff	___fldiv@b+1,??___fldiv+1
  3062   0012E2  C016  F01E         	movff	___fldiv@b+2,??___fldiv+2
  3063   0012E6  C017  F01F         	movff	___fldiv@b+3,??___fldiv+3
  3064   0012EA  341F               	rlcf	(??___fldiv+3)^0,w,c
  3065   0012EC  321F               	rrcf	(??___fldiv+3)^0,f,c
  3066   0012EE  321E               	rrcf	(??___fldiv+2)^0,f,c
  3067   0012F0  321D               	rrcf	(??___fldiv+1)^0,f,c
  3068   0012F2  321C               	rrcf	??___fldiv^0,f,c
  3069   0012F4  C01C  F014         	movff	??___fldiv,___fldiv@b
  3070   0012F8  C01D  F015         	movff	??___fldiv+1,___fldiv@b+1
  3071   0012FC  C01E  F016         	movff	??___fldiv+2,___fldiv@b+2
  3072   001300  C01F  F017         	movff	??___fldiv+3,___fldiv@b+3
  3073   001304  4A25               	infsnz	___fldiv@new_exp^0,f,c
  3074   001306  2A26               	incf	(___fldiv@new_exp+1)^0,f,c
  3075   001308                     l2066:
  3076   001308  BE26               	btfsc	(___fldiv@new_exp+1)^0,7,c
  3077   00130A  EF8F  F009         	goto	u1481
  3078   00130E  5026               	movf	(___fldiv@new_exp+1)^0,w,c
  3079   001310  E108               	bnz	u1480
  3080   001312  2825               	incf	___fldiv@new_exp^0,w,c
  3081   001314  A0D8               	btfss	status,0,c
  3082   001316  EF8F  F009         	goto	u1481
  3083   00131A  EF91  F009         	goto	u1480
  3084   00131E                     u1481:
  3085   00131E  EF9C  F009         	goto	l2070
  3086   001322                     u1480:
  3087   001322  0E00               	movlw	0
  3088   001324  6E26               	movwf	(___fldiv@new_exp+1)^0,c
  3089   001326  6825               	setf	___fldiv@new_exp^0,c
  3090   001328  0E00               	movlw	0
  3091   00132A  6E14               	movwf	___fldiv@b^0,c
  3092   00132C  0E00               	movlw	0
  3093   00132E  6E15               	movwf	(___fldiv@b+1)^0,c
  3094   001330  0E00               	movlw	0
  3095   001332  6E16               	movwf	(___fldiv@b+2)^0,c
  3096   001334  0E00               	movlw	0
  3097   001336  6E17               	movwf	(___fldiv@b+3)^0,c
  3098   001338                     l2070:
  3099   001338  BE26               	btfsc	(___fldiv@new_exp+1)^0,7,c
  3100   00133A  EFA9  F009         	goto	u1490
  3101   00133E  5026               	movf	(___fldiv@new_exp+1)^0,w,c
  3102   001340  E106               	bnz	u1491
  3103   001342  0425               	decf	___fldiv@new_exp^0,w,c
  3104   001344  B0D8               	btfsc	status,0,c
  3105   001346  EFA7  F009         	goto	u1491
  3106   00134A  EFA9  F009         	goto	u1490
  3107   00134E                     u1491:
  3108   00134E  EFB5  F009         	goto	l2076
  3109   001352                     u1490:
  3110   001352  6A26               	clrf	(___fldiv@new_exp+1)^0,c
  3111   001354  0E00               	movlw	0
  3112   001356  6E25               	movwf	___fldiv@new_exp^0,c
  3113   001358  0E00               	movlw	0
  3114   00135A  6E14               	movwf	___fldiv@b^0,c
  3115   00135C  0E00               	movlw	0
  3116   00135E  6E15               	movwf	(___fldiv@b+1)^0,c
  3117   001360  0E00               	movlw	0
  3118   001362  6E16               	movwf	(___fldiv@b+2)^0,c
  3119   001364  0E00               	movlw	0
  3120   001366  6E17               	movwf	(___fldiv@b+3)^0,c
  3121   001368  6A24               	clrf	___fldiv@sign^0,c
  3122   00136A                     l2076:
  3123   00136A  C025  F02B         	movff	___fldiv@new_exp,___fldiv@bexp
  3124   00136E  A02B               	btfss	___fldiv@bexp^0,0,c
  3125   001370  EFBC  F009         	goto	u1501
  3126   001374  EFBE  F009         	goto	u1500
  3127   001378                     u1501:
  3128   001378  EFC1  F009         	goto	l2082
  3129   00137C                     u1500:
  3130   00137C  8E16               	bsf	(___fldiv@b+2)^0,7,c
  3131   00137E  EFC2  F009         	goto	l2084
  3132   001382                     l2082:
  3133   001382  9E16               	bcf	(___fldiv@b+2)^0,7,c
  3134   001384                     l2084:
  3135   001384  90D8               	bcf	status,0,c
  3136   001386  302B               	rrcf	___fldiv@bexp^0,w,c
  3137   001388  6E17               	movwf	(___fldiv@b+3)^0,c
  3138   00138A  EF7C  F008         	goto	l2000
  3139   00138E                     l999:
  3140   00138E  0012               	return		;funcret
  3141   001390                     __end_of___fldiv:
  3142                           	callstack 0
  3143                           
  3144 ;; *************** function _SYSTEM_Initialize *****************
  3145 ;; Defined at:
  3146 ;;		line 50 in file "mcc_generated_files/mcc.c"
  3147 ;; Parameters:    Size  Location     Type
  3148 ;;		None
  3149 ;; Auto vars:     Size  Location     Type
  3150 ;;		None
  3151 ;; Return value:  Size  Location     Type
  3152 ;;                  1    wreg      void 
  3153 ;; Registers used:
  3154 ;;		wreg, status,2, status,0, cstack
  3155 ;; Tracked objects:
  3156 ;;		On entry : 0/0
  3157 ;;		On exit  : 0/0
  3158 ;;		Unchanged: 0/0
  3159 ;; Data sizes:     COMRAM   BANK0   BANK1   BANK2   BANK3   BANK4   BANK5   BANK6   BANK7   BANK8   BANK9  BANK10  BANK1
      +1  BANK12  BANK13  BANK14  BANK15
  3160 ;;      Params:         0       0       0       0       0       0       0       0       0       0       0       0       
      +0       0       0       0       0
  3161 ;;      Locals:         0       0       0       0       0       0       0       0       0       0       0       0       
      +0       0       0       0       0
  3162 ;;      Temps:          0       0       0       0       0       0       0       0       0       0       0       0       
      +0       0       0       0       0
  3163 ;;      Totals:         0       0       0       0       0       0       0       0       0       0       0       0       
      +0       0       0       0       0
  3164 ;;Total ram usage:        0 bytes
  3165 ;; Hardware stack levels used: 1
  3166 ;; Hardware stack levels required when called: 6
  3167 ;; This function calls:
  3168 ;;		_ETH_Initialize
  3169 ;;		_EUSART1_Initialize
  3170 ;;		_INTERRUPT_Initialize
  3171 ;;		_OSCILLATOR_Initialize
  3172 ;;		_PIN_MANAGER_Initialize
  3173 ;; This function is called by:
  3174 ;;		_main
  3175 ;; This function uses a non-reentrant model
  3176 ;;
  3177                           
  3178                           	psect	text5
  3179   001964                     __ptext5:
  3180                           	callstack 0
  3181   001964                     _SYSTEM_Initialize:
  3182                           	callstack 24
  3183   001964                     
  3184                           ;mcc_generated_files/mcc.c: 53:     INTERRUPT_Initialize();
  3185   001964  ECEA  F00C         	call	_INTERRUPT_Initialize	;wreg free
  3186   001968                     
  3187                           ;mcc_generated_files/mcc.c: 54:     PIN_MANAGER_Initialize();
  3188   001968  EC69  F00C         	call	_PIN_MANAGER_Initialize	;wreg free
  3189   00196C                     
  3190                           ;mcc_generated_files/mcc.c: 55:     OSCILLATOR_Initialize();
  3191   00196C  ECE0  F00C         	call	_OSCILLATOR_Initialize	;wreg free
  3192   001970                     
  3193                           ;mcc_generated_files/mcc.c: 56:     EUSART1_Initialize();
  3194   001970  ECD1  F00B         	call	_EUSART1_Initialize	;wreg free
  3195   001974                     
  3196                           ;mcc_generated_files/mcc.c: 57:     ETH_Initialize();
  3197   001974  ECA5  F00C         	call	_ETH_Initialize	;wreg free
  3198   001978  0012               	return		;funcret
  3199   00197A                     __end_of_SYSTEM_Initialize:
  3200                           	callstack 0
  3201                           
  3202 ;; *************** function _PIN_MANAGER_Initialize *****************
  3203 ;; Defined at:
  3204 ;;		line 50 in file "mcc_generated_files/pin_manager.c"
  3205 ;; Parameters:    Size  Location     Type
  3206 ;;		None
  3207 ;; Auto vars:     Size  Location     Type
  3208 ;;		None
  3209 ;; Return value:  Size  Location     Type
  3210 ;;                  1    wreg      void 
  3211 ;; Registers used:
  3212 ;;		wreg, status,2
  3213 ;; Tracked objects:
  3214 ;;		On entry : 0/0
  3215 ;;		On exit  : 0/0
  3216 ;;		Unchanged: 0/0
  3217 ;; Data sizes:     COMRAM   BANK0   BANK1   BANK2   BANK3   BANK4   BANK5   BANK6   BANK7   BANK8   BANK9  BANK10  BANK1
      +1  BANK12  BANK13  BANK14  BANK15
  3218 ;;      Params:         0       0       0       0       0       0       0       0       0       0       0       0       
      +0       0       0       0       0
  3219 ;;      Locals:         0       0       0       0       0       0       0       0       0       0       0       0       
      +0       0       0       0       0
  3220 ;;      Temps:          0       0       0       0       0       0       0       0       0       0       0       0       
      +0       0       0       0       0
  3221 ;;      Totals:         0       0       0       0       0       0       0       0       0       0       0       0       
      +0       0       0       0       0
  3222 ;;Total ram usage:        0 bytes
  3223 ;; Hardware stack levels used: 1
  3224 ;; Hardware stack levels required when called: 4
  3225 ;; This function calls:
  3226 ;;		Nothing
  3227 ;; This function is called by:
  3228 ;;		_SYSTEM_Initialize
  3229 ;; This function uses a non-reentrant model
  3230 ;;
  3231                           
  3232                           	psect	text6
  3233   0018D2                     __ptext6:
  3234                           	callstack 0
  3235   0018D2                     _PIN_MANAGER_Initialize:
  3236                           	callstack 25
  3237   0018D2                     
  3238                           ;mcc_generated_files/pin_manager.c: 55:     LATE = 0x00;
  3239   0018D2  6A8D               	clrf	141,c	;volatile
  3240                           
  3241                           ;mcc_generated_files/pin_manager.c: 56:     LATD = 0x00;
  3242   0018D4  6A8C               	clrf	140,c	;volatile
  3243                           
  3244                           ;mcc_generated_files/pin_manager.c: 57:     LATA = 0x00;
  3245   0018D6  6A89               	clrf	137,c	;volatile
  3246                           
  3247                           ;mcc_generated_files/pin_manager.c: 58:     LATF = 0x00;
  3248   0018D8  6A8E               	clrf	142,c	;volatile
  3249                           
  3250                           ;mcc_generated_files/pin_manager.c: 59:     LATB = 0x00;
  3251   0018DA  6A8A               	clrf	138,c	;volatile
  3252                           
  3253                           ;mcc_generated_files/pin_manager.c: 60:     LATG = 0x00;
  3254   0018DC  6A8F               	clrf	143,c	;volatile
  3255                           
  3256                           ;mcc_generated_files/pin_manager.c: 61:     LATC = 0x00;
  3257   0018DE  6A8B               	clrf	139,c	;volatile
  3258   0018E0                     
  3259                           ;mcc_generated_files/pin_manager.c: 66:     TRISE = 0x3F;
  3260   0018E0  0E3F               	movlw	63
  3261   0018E2  6E96               	movwf	150,c	;volatile
  3262                           
  3263                           ;mcc_generated_files/pin_manager.c: 67:     TRISF = 0xFE;
  3264   0018E4  0EFE               	movlw	254
  3265   0018E6  6E97               	movwf	151,c	;volatile
  3266                           
  3267                           ;mcc_generated_files/pin_manager.c: 68:     TRISA = 0x37;
  3268   0018E8  0E37               	movlw	55
  3269   0018EA  6E92               	movwf	146,c	;volatile
  3270                           
  3271                           ;mcc_generated_files/pin_manager.c: 69:     TRISG = 0x10;
  3272   0018EC  0E10               	movlw	16
  3273   0018EE  6E98               	movwf	152,c	;volatile
  3274                           
  3275                           ;mcc_generated_files/pin_manager.c: 70:     TRISB = 0xF1;
  3276   0018F0  0EF1               	movlw	241
  3277   0018F2  6E93               	movwf	147,c	;volatile
  3278                           
  3279                           ;mcc_generated_files/pin_manager.c: 71:     TRISC = 0xBB;
  3280   0018F4  0EBB               	movlw	187
  3281   0018F6  6E94               	movwf	148,c	;volatile
  3282                           
  3283                           ;mcc_generated_files/pin_manager.c: 72:     TRISD = 0x07;
  3284   0018F8  0E07               	movlw	7
  3285   0018FA  6E95               	movwf	149,c	;volatile
  3286                           
  3287                           ;mcc_generated_files/pin_manager.c: 77:     ADCON1bits.PCFG = 0x00;
  3288   0018FC  0EF0               	movlw	-16
  3289   0018FE  16C1               	andwf	193,f,c	;volatile
  3290   001900                     
  3291                           ;mcc_generated_files/pin_manager.c: 85:     INTCONbits.RBIE = 1;
  3292   001900  86F2               	bsf	242,3,c	;volatile
  3293   001902  0012               	return		;funcret
  3294   001904                     __end_of_PIN_MANAGER_Initialize:
  3295                           	callstack 0
  3296                           
  3297 ;; *************** function _OSCILLATOR_Initialize *****************
  3298 ;; Defined at:
  3299 ;;		line 60 in file "mcc_generated_files/mcc.c"
  3300 ;; Parameters:    Size  Location     Type
  3301 ;;		None
  3302 ;; Auto vars:     Size  Location     Type
  3303 ;;		None
  3304 ;; Return value:  Size  Location     Type
  3305 ;;                  1    wreg      void 
  3306 ;; Registers used:
  3307 ;;		wreg, status,2
  3308 ;; Tracked objects:
  3309 ;;		On entry : 0/0
  3310 ;;		On exit  : 0/0
  3311 ;;		Unchanged: 0/0
  3312 ;; Data sizes:     COMRAM   BANK0   BANK1   BANK2   BANK3   BANK4   BANK5   BANK6   BANK7   BANK8   BANK9  BANK10  BANK1
      +1  BANK12  BANK13  BANK14  BANK15
  3313 ;;      Params:         0       0       0       0       0       0       0       0       0       0       0       0       
      +0       0       0       0       0
  3314 ;;      Locals:         0       0       0       0       0       0       0       0       0       0       0       0       
      +0       0       0       0       0
  3315 ;;      Temps:          0       0       0       0       0       0       0       0       0       0       0       0       
      +0       0       0       0       0
  3316 ;;      Totals:         0       0       0       0       0       0       0       0       0       0       0       0       
      +0       0       0       0       0
  3317 ;;Total ram usage:        0 bytes
  3318 ;; Hardware stack levels used: 1
  3319 ;; Hardware stack levels required when called: 4
  3320 ;; This function calls:
  3321 ;;		Nothing
  3322 ;; This function is called by:
  3323 ;;		_SYSTEM_Initialize
  3324 ;; This function uses a non-reentrant model
  3325 ;;
  3326                           
  3327                           	psect	text7
  3328   0019C0                     __ptext7:
  3329                           	callstack 0
  3330   0019C0                     _OSCILLATOR_Initialize:
  3331                           	callstack 25
  3332   0019C0                     
  3333                           ;mcc_generated_files/mcc.c: 63:     OSCCON = 0x02;
  3334   0019C0  0E02               	movlw	2
  3335   0019C2  6ED3               	movwf	211,c	;volatile
  3336   0019C4                     
  3337                           ;mcc_generated_files/mcc.c: 65:     OSCTUNE = 0x00;
  3338   0019C4  6A9B               	clrf	155,c	;volatile
  3339   0019C6  0012               	return		;funcret
  3340   0019C8                     __end_of_OSCILLATOR_Initialize:
  3341                           	callstack 0
  3342                           
  3343 ;; *************** function _INTERRUPT_Initialize *****************
  3344 ;; Defined at:
  3345 ;;		line 52 in file "mcc_generated_files/interrupt_manager.c"
  3346 ;; Parameters:    Size  Location     Type
  3347 ;;		None
  3348 ;; Auto vars:     Size  Location     Type
  3349 ;;		None
  3350 ;; Return value:  Size  Location     Type
  3351 ;;                  1    wreg      void 
  3352 ;; Registers used:
  3353 ;;		None
  3354 ;; Tracked objects:
  3355 ;;		On entry : 0/0
  3356 ;;		On exit  : 0/0
  3357 ;;		Unchanged: 0/0
  3358 ;; Data sizes:     COMRAM   BANK0   BANK1   BANK2   BANK3   BANK4   BANK5   BANK6   BANK7   BANK8   BANK9  BANK10  BANK1
      +1  BANK12  BANK13  BANK14  BANK15
  3359 ;;      Params:         0       0       0       0       0       0       0       0       0       0       0       0       
      +0       0       0       0       0
  3360 ;;      Locals:         0       0       0       0       0       0       0       0       0       0       0       0       
      +0       0       0       0       0
  3361 ;;      Temps:          0       0       0       0       0       0       0       0       0       0       0       0       
      +0       0       0       0       0
  3362 ;;      Totals:         0       0       0       0       0       0       0       0       0       0       0       0       
      +0       0       0       0       0
  3363 ;;Total ram usage:        0 bytes
  3364 ;; Hardware stack levels used: 1
  3365 ;; Hardware stack levels required when called: 4
  3366 ;; This function calls:
  3367 ;;		Nothing
  3368 ;; This function is called by:
  3369 ;;		_SYSTEM_Initialize
  3370 ;; This function uses a non-reentrant model
  3371 ;;
  3372                           
  3373                           	psect	text8
  3374   0019D4                     __ptext8:
  3375                           	callstack 0
  3376   0019D4                     _INTERRUPT_Initialize:
  3377                           	callstack 25
  3378   0019D4                     
  3379                           ;mcc_generated_files/interrupt_manager.c: 55:     RCONbits.IPEN = 0;
  3380   0019D4  9ED0               	bcf	208,7,c	;volatile
  3381   0019D6  0012               	return		;funcret
  3382   0019D8                     __end_of_INTERRUPT_Initialize:
  3383                           	callstack 0
  3384                           
  3385 ;; *************** function _EUSART1_Initialize *****************
  3386 ;; Defined at:
  3387 ;;		line 88 in file "mcc_generated_files/eusart1.c"
  3388 ;; Parameters:    Size  Location     Type
  3389 ;;		None
  3390 ;; Auto vars:     Size  Location     Type
  3391 ;;		None
  3392 ;; Return value:  Size  Location     Type
  3393 ;;                  1    wreg      void 
  3394 ;; Registers used:
  3395 ;;		wreg, status,2, status,0, cstack
  3396 ;; Tracked objects:
  3397 ;;		On entry : 0/0
  3398 ;;		On exit  : 0/0
  3399 ;;		Unchanged: 0/0
  3400 ;; Data sizes:     COMRAM   BANK0   BANK1   BANK2   BANK3   BANK4   BANK5   BANK6   BANK7   BANK8   BANK9  BANK10  BANK1
      +1  BANK12  BANK13  BANK14  BANK15
  3401 ;;      Params:         0       0       0       0       0       0       0       0       0       0       0       0       
      +0       0       0       0       0
  3402 ;;      Locals:         0       0       0       0       0       0       0       0       0       0       0       0       
      +0       0       0       0       0
  3403 ;;      Temps:          0       0       0       0       0       0       0       0       0       0       0       0       
      +0       0       0       0       0
  3404 ;;      Totals:         0       0       0       0       0       0       0       0       0       0       0       0       
      +0       0       0       0       0
  3405 ;;Total ram usage:        0 bytes
  3406 ;; Hardware stack levels used: 1
  3407 ;; Hardware stack levels required when called: 5
  3408 ;; This function calls:
  3409 ;;		_EUSART1_SetErrorHandler
  3410 ;;		_EUSART1_SetFramingErrorHandler
  3411 ;;		_EUSART1_SetOverrunErrorHandler
  3412 ;;		_EUSART1_SetRxInterruptHandler
  3413 ;;		_EUSART1_SetTxInterruptHandler
  3414 ;; This function is called by:
  3415 ;;		_SYSTEM_Initialize
  3416 ;; This function uses a non-reentrant model
  3417 ;;
  3418                           
  3419                           	psect	text9
  3420   0017A2                     __ptext9:
  3421                           	callstack 0
  3422   0017A2                     _EUSART1_Initialize:
  3423                           	callstack 24
  3424   0017A2                     
  3425                           ;mcc_generated_files/eusart1.c: 91:     PIE1bits.RC1IE = 0;
  3426   0017A2  9A9D               	bcf	157,5,c	;volatile
  3427   0017A4                     
  3428                           ;mcc_generated_files/eusart1.c: 92:     EUSART1_SetRxInterruptHandler(EUSART1_Receive_IS
      +                          R);
  3429   0017A4  0E4A               	movlw	low _EUSART1_Receive_ISR
  3430   0017A6  6E06               	movwf	EUSART1_SetRxInterruptHandler@interruptHandler^0,c
  3431   0017A8  0E16               	movlw	high _EUSART1_Receive_ISR
  3432   0017AA  6E07               	movwf	(EUSART1_SetRxInterruptHandler@interruptHandler+1)^0,c
  3433   0017AC  0E00               	movlw	low (_EUSART1_Receive_ISR shr (0+16))
  3434   0017AE  6E08               	movwf	(EUSART1_SetRxInterruptHandler@interruptHandler+2)^0,c
  3435   0017B0  ECC4  F00C         	call	_EUSART1_SetRxInterruptHandler	;wreg free
  3436   0017B4                     
  3437                           ;mcc_generated_files/eusart1.c: 93:     PIE1bits.TX1IE = 0;
  3438   0017B4  989D               	bcf	157,4,c	;volatile
  3439                           
  3440                           ;mcc_generated_files/eusart1.c: 94:     EUSART1_SetTxInterruptHandler(EUSART1_Transmit_I
      +                          SR);
  3441   0017B6  0E98               	movlw	low _EUSART1_Transmit_ISR
  3442   0017B8  6E06               	movwf	EUSART1_SetTxInterruptHandler@interruptHandler^0,c
  3443   0017BA  0E18               	movlw	high _EUSART1_Transmit_ISR
  3444   0017BC  6E07               	movwf	(EUSART1_SetTxInterruptHandler@interruptHandler+1)^0,c
  3445   0017BE  0E00               	movlw	low (_EUSART1_Transmit_ISR shr (0+16))
  3446   0017C0  6E08               	movwf	(EUSART1_SetTxInterruptHandler@interruptHandler+2)^0,c
  3447   0017C2  ECBD  F00C         	call	_EUSART1_SetTxInterruptHandler	;wreg free
  3448   0017C6                     
  3449                           ;mcc_generated_files/eusart1.c: 98:     BAUDCON1 = 0x08;
  3450   0017C6  0E08               	movlw	8
  3451   0017C8  6E7E               	movwf	126,c	;volatile
  3452   0017CA                     
  3453                           ;mcc_generated_files/eusart1.c: 101:     RCSTA1 = 0x90;
  3454   0017CA  0E90               	movlw	144
  3455   0017CC  6EAB               	movwf	171,c	;volatile
  3456   0017CE                     
  3457                           ;mcc_generated_files/eusart1.c: 104:     TXSTA1 = 0x24;
  3458   0017CE  0E24               	movlw	36
  3459   0017D0  6EAC               	movwf	172,c	;volatile
  3460   0017D2                     
  3461                           ;mcc_generated_files/eusart1.c: 107:     SPBRG1 = 0x8A;
  3462   0017D2  0E8A               	movlw	138
  3463   0017D4  6EAF               	movwf	175,c	;volatile
  3464   0017D6                     
  3465                           ;mcc_generated_files/eusart1.c: 110:     SPBRGH1 = 0x02;
  3466   0017D6  0E02               	movlw	2
  3467   0017D8  6E7F               	movwf	127,c	;volatile
  3468   0017DA                     
  3469                           ;mcc_generated_files/eusart1.c: 113:     EUSART1_SetFramingErrorHandler(EUSART1_DefaultF
      +                          ramingErrorHandler);
  3470   0017DA  0EDC               	movlw	low _EUSART1_DefaultFramingErrorHandler
  3471   0017DC  6E06               	movwf	EUSART1_SetFramingErrorHandler@interruptHandler^0,c
  3472   0017DE  0E19               	movlw	high _EUSART1_DefaultFramingErrorHandler
  3473   0017E0  6E07               	movwf	(EUSART1_SetFramingErrorHandler@interruptHandler+1)^0,c
  3474   0017E2  0E00               	movlw	low (_EUSART1_DefaultFramingErrorHandler shr (0+16))
  3475   0017E4  6E08               	movwf	(EUSART1_SetFramingErrorHandler@interruptHandler+2)^0,c
  3476   0017E6  ECD2  F00C         	call	_EUSART1_SetFramingErrorHandler	;wreg free
  3477   0017EA                     
  3478                           ;mcc_generated_files/eusart1.c: 114:     EUSART1_SetOverrunErrorHandler(EUSART1_DefaultO
      +                          verrunErrorHandler);
  3479   0017EA  0EC8               	movlw	low _EUSART1_DefaultOverrunErrorHandler
  3480   0017EC  6E06               	movwf	EUSART1_SetOverrunErrorHandler@interruptHandler^0,c
  3481   0017EE  0E19               	movlw	high _EUSART1_DefaultOverrunErrorHandler
  3482   0017F0  6E07               	movwf	(EUSART1_SetOverrunErrorHandler@interruptHandler+1)^0,c
  3483   0017F2  0E00               	movlw	low (_EUSART1_DefaultOverrunErrorHandler shr (0+16))
  3484   0017F4  6E08               	movwf	(EUSART1_SetOverrunErrorHandler@interruptHandler+2)^0,c
  3485   0017F6  ECCB  F00C         	call	_EUSART1_SetOverrunErrorHandler	;wreg free
  3486   0017FA                     
  3487                           ;mcc_generated_files/eusart1.c: 115:     EUSART1_SetErrorHandler(EUSART1_DefaultErrorHan
      +                          dler);
  3488   0017FA  0ECE               	movlw	low _EUSART1_DefaultErrorHandler
  3489   0017FC  6E06               	movwf	EUSART1_SetErrorHandler@interruptHandler^0,c
  3490   0017FE  0E19               	movlw	high _EUSART1_DefaultErrorHandler
  3491   001800  6E07               	movwf	(EUSART1_SetErrorHandler@interruptHandler+1)^0,c
  3492   001802  0E00               	movlw	low (_EUSART1_DefaultErrorHandler shr (0+16))
  3493   001804  6E08               	movwf	(EUSART1_SetErrorHandler@interruptHandler+2)^0,c
  3494   001806  ECD9  F00C         	call	_EUSART1_SetErrorHandler	;wreg free
  3495   00180A                     
  3496                           ;mcc_generated_files/eusart1.c: 117:     eusart1RxLastError.status = 0;
  3497   00180A  6A4B               	clrf	_eusart1RxLastError^0,c	;volatile
  3498   00180C                     
  3499                           ;mcc_generated_files/eusart1.c: 120:     eusart1TxHead = 0;
  3500   00180C  6A51               	clrf	_eusart1TxHead^0,c	;volatile
  3501   00180E                     
  3502                           ;mcc_generated_files/eusart1.c: 121:     eusart1TxTail = 0;
  3503   00180E  6A50               	clrf	_eusart1TxTail^0,c	;volatile
  3504                           
  3505                           ;mcc_generated_files/eusart1.c: 122:     eusart1TxBufferRemaining = sizeof(eusart1TxBuff
      +                          er);
  3506   001810  0E08               	movlw	8
  3507   001812  6E4F               	movwf	_eusart1TxBufferRemaining^0,c	;volatile
  3508   001814                     
  3509                           ;mcc_generated_files/eusart1.c: 124:     eusart1RxHead = 0;
  3510   001814  6A4E               	clrf	_eusart1RxHead^0,c	;volatile
  3511   001816                     
  3512                           ;mcc_generated_files/eusart1.c: 125:     eusart1RxTail = 0;
  3513   001816  6A4D               	clrf	_eusart1RxTail^0,c	;volatile
  3514   001818                     
  3515                           ;mcc_generated_files/eusart1.c: 126:     eusart1RxCount = 0;
  3516   001818  6A4C               	clrf	_eusart1RxCount^0,c	;volatile
  3517   00181A                     
  3518                           ;mcc_generated_files/eusart1.c: 129:     PIE1bits.RC1IE = 1;
  3519   00181A  8A9D               	bsf	157,5,c	;volatile
  3520   00181C  0012               	return		;funcret
  3521   00181E                     __end_of_EUSART1_Initialize:
  3522                           	callstack 0
  3523                           
  3524 ;; *************** function _EUSART1_SetTxInterruptHandler *****************
  3525 ;; Defined at:
  3526 ;;		line 285 in file "mcc_generated_files/eusart1.c"
  3527 ;; Parameters:    Size  Location     Type
  3528 ;;  interruptHan    3    4[COMRAM] PTR FTN()void 
  3529 ;;		 -> EUSART1_Transmit_ISR(1), 
  3530 ;; Auto vars:     Size  Location     Type
  3531 ;;		None
  3532 ;; Return value:  Size  Location     Type
  3533 ;;                  1    wreg      void 
  3534 ;; Registers used:
  3535 ;;		wreg, status,2, status,0
  3536 ;; Tracked objects:
  3537 ;;		On entry : 0/0
  3538 ;;		On exit  : 0/0
  3539 ;;		Unchanged: 0/0
  3540 ;; Data sizes:     COMRAM   BANK0   BANK1   BANK2   BANK3   BANK4   BANK5   BANK6   BANK7   BANK8   BANK9  BANK10  BANK1
      +1  BANK12  BANK13  BANK14  BANK15
  3541 ;;      Params:         3       0       0       0       0       0       0       0       0       0       0       0       
      +0       0       0       0       0
  3542 ;;      Locals:         0       0       0       0       0       0       0       0       0       0       0       0       
      +0       0       0       0       0
  3543 ;;      Temps:          0       0       0       0       0       0       0       0       0       0       0       0       
      +0       0       0       0       0
  3544 ;;      Totals:         3       0       0       0       0       0       0       0       0       0       0       0       
      +0       0       0       0       0
  3545 ;;Total ram usage:        3 bytes
  3546 ;; Hardware stack levels used: 1
  3547 ;; Hardware stack levels required when called: 4
  3548 ;; This function calls:
  3549 ;;		Nothing
  3550 ;; This function is called by:
  3551 ;;		_EUSART1_Initialize
  3552 ;; This function uses a non-reentrant model
  3553 ;;
  3554                           
  3555                           	psect	text10
  3556   00197A                     __ptext10:
  3557                           	callstack 0
  3558   00197A                     _EUSART1_SetTxInterruptHandler:
  3559                           	callstack 24
  3560   00197A                     
  3561                           ;mcc_generated_files/eusart1.c: 286:     EUSART1_TxDefaultInterruptHandler = interruptHa
      +                          ndler;
  3562   00197A  C006  F055         	movff	EUSART1_SetTxInterruptHandler@interruptHandler,_EUSART1_TxDefaultInterruptHandler
  3563   00197E  C007  F056         	movff	EUSART1_SetTxInterruptHandler@interruptHandler+1,_EUSART1_TxDefaultInterruptHandl
      +                          er+1
  3564   001982  C008  F057         	movff	EUSART1_SetTxInterruptHandler@interruptHandler+2,_EUSART1_TxDefaultInterruptHandl
      +                          er+2
  3565   001986  0012               	return		;funcret
  3566   001988                     __end_of_EUSART1_SetTxInterruptHandler:
  3567                           	callstack 0
  3568                           
  3569 ;; *************** function _EUSART1_SetRxInterruptHandler *****************
  3570 ;; Defined at:
  3571 ;;		line 289 in file "mcc_generated_files/eusart1.c"
  3572 ;; Parameters:    Size  Location     Type
  3573 ;;  interruptHan    3    4[COMRAM] PTR FTN()void 
  3574 ;;		 -> EUSART1_Receive_ISR(1), 
  3575 ;; Auto vars:     Size  Location     Type
  3576 ;;		None
  3577 ;; Return value:  Size  Location     Type
  3578 ;;                  1    wreg      void 
  3579 ;; Registers used:
  3580 ;;		wreg, status,2, status,0
  3581 ;; Tracked objects:
  3582 ;;		On entry : 0/0
  3583 ;;		On exit  : 0/0
  3584 ;;		Unchanged: 0/0
  3585 ;; Data sizes:     COMRAM   BANK0   BANK1   BANK2   BANK3   BANK4   BANK5   BANK6   BANK7   BANK8   BANK9  BANK10  BANK1
      +1  BANK12  BANK13  BANK14  BANK15
  3586 ;;      Params:         3       0       0       0       0       0       0       0       0       0       0       0       
      +0       0       0       0       0
  3587 ;;      Locals:         0       0       0       0       0       0       0       0       0       0       0       0       
      +0       0       0       0       0
  3588 ;;      Temps:          0       0       0       0       0       0       0       0       0       0       0       0       
      +0       0       0       0       0
  3589 ;;      Totals:         3       0       0       0       0       0       0       0       0       0       0       0       
      +0       0       0       0       0
  3590 ;;Total ram usage:        3 bytes
  3591 ;; Hardware stack levels used: 1
  3592 ;; Hardware stack levels required when called: 4
  3593 ;; This function calls:
  3594 ;;		Nothing
  3595 ;; This function is called by:
  3596 ;;		_EUSART1_Initialize
  3597 ;; This function uses a non-reentrant model
  3598 ;;
  3599                           
  3600                           	psect	text11
  3601   001988                     __ptext11:
  3602                           	callstack 0
  3603   001988                     _EUSART1_SetRxInterruptHandler:
  3604                           	callstack 24
  3605   001988                     
  3606                           ;mcc_generated_files/eusart1.c: 290:     EUSART1_RxDefaultInterruptHandler = interruptHa
      +                          ndler;
  3607   001988  C006  F052         	movff	EUSART1_SetRxInterruptHandler@interruptHandler,_EUSART1_RxDefaultInterruptHandler
  3608   00198C  C007  F053         	movff	EUSART1_SetRxInterruptHandler@interruptHandler+1,_EUSART1_RxDefaultInterruptHandl
      +                          er+1
  3609   001990  C008  F054         	movff	EUSART1_SetRxInterruptHandler@interruptHandler+2,_EUSART1_RxDefaultInterruptHandl
      +                          er+2
  3610   001994  0012               	return		;funcret
  3611   001996                     __end_of_EUSART1_SetRxInterruptHandler:
  3612                           	callstack 0
  3613                           
  3614 ;; *************** function _EUSART1_SetOverrunErrorHandler *****************
  3615 ;; Defined at:
  3616 ;;		line 277 in file "mcc_generated_files/eusart1.c"
  3617 ;; Parameters:    Size  Location     Type
  3618 ;;  interruptHan    3    4[COMRAM] PTR FTN()void 
  3619 ;;		 -> EUSART1_DefaultOverrunErrorHandler(1), 
  3620 ;; Auto vars:     Size  Location     Type
  3621 ;;		None
  3622 ;; Return value:  Size  Location     Type
  3623 ;;                  1    wreg      void 
  3624 ;; Registers used:
  3625 ;;		wreg, status,2, status,0
  3626 ;; Tracked objects:
  3627 ;;		On entry : 0/0
  3628 ;;		On exit  : 0/0
  3629 ;;		Unchanged: 0/0
  3630 ;; Data sizes:     COMRAM   BANK0   BANK1   BANK2   BANK3   BANK4   BANK5   BANK6   BANK7   BANK8   BANK9  BANK10  BANK1
      +1  BANK12  BANK13  BANK14  BANK15
  3631 ;;      Params:         3       0       0       0       0       0       0       0       0       0       0       0       
      +0       0       0       0       0
  3632 ;;      Locals:         0       0       0       0       0       0       0       0       0       0       0       0       
      +0       0       0       0       0
  3633 ;;      Temps:          0       0       0       0       0       0       0       0       0       0       0       0       
      +0       0       0       0       0
  3634 ;;      Totals:         3       0       0       0       0       0       0       0       0       0       0       0       
      +0       0       0       0       0
  3635 ;;Total ram usage:        3 bytes
  3636 ;; Hardware stack levels used: 1
  3637 ;; Hardware stack levels required when called: 4
  3638 ;; This function calls:
  3639 ;;		Nothing
  3640 ;; This function is called by:
  3641 ;;		_EUSART1_Initialize
  3642 ;; This function uses a non-reentrant model
  3643 ;;
  3644                           
  3645                           	psect	text12
  3646   001996                     __ptext12:
  3647                           	callstack 0
  3648   001996                     _EUSART1_SetOverrunErrorHandler:
  3649                           	callstack 24
  3650   001996                     
  3651                           ;mcc_generated_files/eusart1.c: 278:     EUSART1_OverrunErrorHandler = interruptHandler;
  3652   001996  C006  F063         	movff	EUSART1_SetOverrunErrorHandler@interruptHandler,_EUSART1_OverrunErrorHandler
  3653   00199A  C007  F064         	movff	EUSART1_SetOverrunErrorHandler@interruptHandler+1,_EUSART1_OverrunErrorHandler+1
  3654   00199E  C008  F065         	movff	EUSART1_SetOverrunErrorHandler@interruptHandler+2,_EUSART1_OverrunErrorHandler+2
  3655   0019A2  0012               	return		;funcret
  3656   0019A4                     __end_of_EUSART1_SetOverrunErrorHandler:
  3657                           	callstack 0
  3658                           
  3659 ;; *************** function _EUSART1_SetFramingErrorHandler *****************
  3660 ;; Defined at:
  3661 ;;		line 273 in file "mcc_generated_files/eusart1.c"
  3662 ;; Parameters:    Size  Location     Type
  3663 ;;  interruptHan    3    4[COMRAM] PTR FTN()void 
  3664 ;;		 -> EUSART1_DefaultFramingErrorHandler(1), 
  3665 ;; Auto vars:     Size  Location     Type
  3666 ;;		None
  3667 ;; Return value:  Size  Location     Type
  3668 ;;                  1    wreg      void 
  3669 ;; Registers used:
  3670 ;;		wreg, status,2, status,0
  3671 ;; Tracked objects:
  3672 ;;		On entry : 0/0
  3673 ;;		On exit  : 0/0
  3674 ;;		Unchanged: 0/0
  3675 ;; Data sizes:     COMRAM   BANK0   BANK1   BANK2   BANK3   BANK4   BANK5   BANK6   BANK7   BANK8   BANK9  BANK10  BANK1
      +1  BANK12  BANK13  BANK14  BANK15
  3676 ;;      Params:         3       0       0       0       0       0       0       0       0       0       0       0       
      +0       0       0       0       0
  3677 ;;      Locals:         0       0       0       0       0       0       0       0       0       0       0       0       
      +0       0       0       0       0
  3678 ;;      Temps:          0       0       0       0       0       0       0       0       0       0       0       0       
      +0       0       0       0       0
  3679 ;;      Totals:         3       0       0       0       0       0       0       0       0       0       0       0       
      +0       0       0       0       0
  3680 ;;Total ram usage:        3 bytes
  3681 ;; Hardware stack levels used: 1
  3682 ;; Hardware stack levels required when called: 4
  3683 ;; This function calls:
  3684 ;;		Nothing
  3685 ;; This function is called by:
  3686 ;;		_EUSART1_Initialize
  3687 ;; This function uses a non-reentrant model
  3688 ;;
  3689                           
  3690                           	psect	text13
  3691   0019A4                     __ptext13:
  3692                           	callstack 0
  3693   0019A4                     _EUSART1_SetFramingErrorHandler:
  3694                           	callstack 24
  3695   0019A4                     
  3696                           ;mcc_generated_files/eusart1.c: 274:     EUSART1_FramingErrorHandler = interruptHandler;
  3697   0019A4  C006  F066         	movff	EUSART1_SetFramingErrorHandler@interruptHandler,_EUSART1_FramingErrorHandler
  3698   0019A8  C007  F067         	movff	EUSART1_SetFramingErrorHandler@interruptHandler+1,_EUSART1_FramingErrorHandler+1
  3699   0019AC  C008  F068         	movff	EUSART1_SetFramingErrorHandler@interruptHandler+2,_EUSART1_FramingErrorHandler+2
  3700   0019B0  0012               	return		;funcret
  3701   0019B2                     __end_of_EUSART1_SetFramingErrorHandler:
  3702                           	callstack 0
  3703                           
  3704 ;; *************** function _EUSART1_SetErrorHandler *****************
  3705 ;; Defined at:
  3706 ;;		line 281 in file "mcc_generated_files/eusart1.c"
  3707 ;; Parameters:    Size  Location     Type
  3708 ;;  interruptHan    3    4[COMRAM] PTR FTN()void 
  3709 ;;		 -> EUSART1_DefaultErrorHandler(1), 
  3710 ;; Auto vars:     Size  Location     Type
  3711 ;;		None
  3712 ;; Return value:  Size  Location     Type
  3713 ;;                  1    wreg      void 
  3714 ;; Registers used:
  3715 ;;		wreg, status,2, status,0
  3716 ;; Tracked objects:
  3717 ;;		On entry : 0/0
  3718 ;;		On exit  : 0/0
  3719 ;;		Unchanged: 0/0
  3720 ;; Data sizes:     COMRAM   BANK0   BANK1   BANK2   BANK3   BANK4   BANK5   BANK6   BANK7   BANK8   BANK9  BANK10  BANK1
      +1  BANK12  BANK13  BANK14  BANK15
  3721 ;;      Params:         3       0       0       0       0       0       0       0       0       0       0       0       
      +0       0       0       0       0
  3722 ;;      Locals:         0       0       0       0       0       0       0       0       0       0       0       0       
      +0       0       0       0       0
  3723 ;;      Temps:          0       0       0       0       0       0       0       0       0       0       0       0       
      +0       0       0       0       0
  3724 ;;      Totals:         3       0       0       0       0       0       0       0       0       0       0       0       
      +0       0       0       0       0
  3725 ;;Total ram usage:        3 bytes
  3726 ;; Hardware stack levels used: 1
  3727 ;; Hardware stack levels required when called: 4
  3728 ;; This function calls:
  3729 ;;		Nothing
  3730 ;; This function is called by:
  3731 ;;		_EUSART1_Initialize
  3732 ;; This function uses a non-reentrant model
  3733 ;;
  3734                           
  3735                           	psect	text14
  3736   0019B2                     __ptext14:
  3737                           	callstack 0
  3738   0019B2                     _EUSART1_SetErrorHandler:
  3739                           	callstack 24
  3740   0019B2                     
  3741                           ;mcc_generated_files/eusart1.c: 282:     EUSART1_ErrorHandler = interruptHandler;
  3742   0019B2  C006  F060         	movff	EUSART1_SetErrorHandler@interruptHandler,_EUSART1_ErrorHandler
  3743   0019B6  C007  F061         	movff	EUSART1_SetErrorHandler@interruptHandler+1,_EUSART1_ErrorHandler+1
  3744   0019BA  C008  F062         	movff	EUSART1_SetErrorHandler@interruptHandler+2,_EUSART1_ErrorHandler+2
  3745   0019BE  0012               	return		;funcret
  3746   0019C0                     __end_of_EUSART1_SetErrorHandler:
  3747                           	callstack 0
  3748                           
  3749 ;; *************** function _ETH_Initialize *****************
  3750 ;; Defined at:
  3751 ;;		line 55 in file "mcc_generated_files/eth.c"
  3752 ;; Parameters:    Size  Location     Type
  3753 ;;		None
  3754 ;; Auto vars:     Size  Location     Type
  3755 ;;		None
  3756 ;; Return value:  Size  Location     Type
  3757 ;;                  1    wreg      void 
  3758 ;; Registers used:
  3759 ;;		wreg, status,2
  3760 ;; Tracked objects:
  3761 ;;		On entry : 0/0
  3762 ;;		On exit  : 0/0
  3763 ;;		Unchanged: 0/0
  3764 ;; Data sizes:     COMRAM   BANK0   BANK1   BANK2   BANK3   BANK4   BANK5   BANK6   BANK7   BANK8   BANK9  BANK10  BANK1
      +1  BANK12  BANK13  BANK14  BANK15
  3765 ;;      Params:         0       0       0       0       0       0       0       0       0       0       0       0       
      +0       0       0       0       0
  3766 ;;      Locals:         0       0       0       0       0       0       0       0       0       0       0       0       
      +0       0       0       0       0
  3767 ;;      Temps:          0       0       0       0       0       0       0       0       0       0       0       0       
      +0       0       0       0       0
  3768 ;;      Totals:         0       0       0       0       0       0       0       0       0       0       0       0       
      +0       0       0       0       0
  3769 ;;Total ram usage:        0 bytes
  3770 ;; Hardware stack levels used: 1
  3771 ;; Hardware stack levels required when called: 4
  3772 ;; This function calls:
  3773 ;;		Nothing
  3774 ;; This function is called by:
  3775 ;;		_SYSTEM_Initialize
  3776 ;; This function uses a non-reentrant model
  3777 ;;
  3778                           
  3779                           	psect	text15
  3780   00194A                     __ptext15:
  3781                           	callstack 0
  3782   00194A                     _ETH_Initialize:
  3783                           	callstack 25
  3784   00194A                     
  3785                           ;mcc_generated_files/eth.c: 60:     ECON1 = 0x00;
  3786   00194A  6AD2               	clrf	210,c	;volatile
  3787                           
  3788                           ;mcc_generated_files/eth.c: 63:     ECON2 = 0x00;
  3789   00194C  010E               	movlb	14	; () banked
  3790   00194E  6BFE               	clrf	254,b	;volatile
  3791                           
  3792                           ;mcc_generated_files/eth.c: 66:     ESTAT = 0x00;
  3793   001950  6BFD               	clrf	253,b	;volatile
  3794                           
  3795                           ;mcc_generated_files/eth.c: 69:     MACON1 = 0x00;
  3796   001952  6BA0               	clrf	160,b	;volatile
  3797   001954                     
  3798                           ; BSR set to: 14
  3799                           ;mcc_generated_files/eth.c: 72:     MACON3 = 0xC0;
  3800   001954  0EC0               	movlw	192
  3801   001956  6FA2               	movwf	162,b	;volatile
  3802   001958                     
  3803                           ; BSR set to: 14
  3804                           ;mcc_generated_files/eth.c: 75:     MACON4 = 0x00;
  3805   001958  6BA3               	clrf	163,b	;volatile
  3806   00195A                     
  3807                           ; BSR set to: 14
  3808                           ;mcc_generated_files/eth.c: 78:     MICMD = 0x00;
  3809   00195A  6BB2               	clrf	178,b	;volatile
  3810   00195C                     
  3811                           ; BSR set to: 14
  3812                           ;mcc_generated_files/eth.c: 81:     EIE = 0x00;
  3813   00195C  6BFB               	clrf	251,b	;volatile
  3814   00195E                     
  3815                           ; BSR set to: 14
  3816                           ;mcc_generated_files/eth.c: 84:     EIR = 0x00;
  3817   00195E  6A60               	clrf	96,c	;volatile
  3818   001960                     
  3819                           ; BSR set to: 14
  3820                           ;mcc_generated_files/eth.c: 87:     MABBIPG = 0x00;
  3821   001960  6BA4               	clrf	164,b	;volatile
  3822   001962                     
  3823                           ; BSR set to: 14
  3824   001962  0012               	return		;funcret
  3825   001964                     __end_of_ETH_Initialize:
  3826                           	callstack 0
  3827                           
  3828 ;; *************** function _INTERRUPT_InterruptManager *****************
  3829 ;; Defined at:
  3830 ;;		line 58 in file "mcc_generated_files/interrupt_manager.c"
  3831 ;; Parameters:    Size  Location     Type
  3832 ;;		None
  3833 ;; Auto vars:     Size  Location     Type
  3834 ;;		None
  3835 ;; Return value:  Size  Location     Type
  3836 ;;                  1    wreg      void 
  3837 ;; Registers used:
  3838 ;;		wreg, fsr2l, fsr2h, status,2, status,0, pcl, pclath, pclatu, tosl, cstack
  3839 ;; Tracked objects:
  3840 ;;		On entry : 0/0
  3841 ;;		On exit  : 0/0
  3842 ;;		Unchanged: 0/0
  3843 ;; Data sizes:     COMRAM   BANK0   BANK1   BANK2   BANK3   BANK4   BANK5   BANK6   BANK7   BANK8   BANK9  BANK10  BANK1
      +1  BANK12  BANK13  BANK14  BANK15
  3844 ;;      Params:         0       0       0       0       0       0       0       0       0       0       0       0       
      +0       0       0       0       0
  3845 ;;      Locals:         0       0       0       0       0       0       0       0       0       0       0       0       
      +0       0       0       0       0
  3846 ;;      Temps:          4       0       0       0       0       0       0       0       0       0       0       0       
      +0       0       0       0       0
  3847 ;;      Totals:         4       0       0       0       0       0       0       0       0       0       0       0       
      +0       0       0       0       0
  3848 ;;Total ram usage:        4 bytes
  3849 ;; Hardware stack levels used: 1
  3850 ;; Hardware stack levels required when called: 3
  3851 ;; This function calls:
  3852 ;;		NULL
  3853 ;;		_EUSART1_Receive_ISR
  3854 ;;		_EUSART1_Transmit_ISR
  3855 ;;		_PIN_MANAGER_IOC
  3856 ;; This function is called by:
  3857 ;;		Interrupt level 2
  3858 ;; This function uses a non-reentrant model
  3859 ;;
  3860                           
  3861                           	psect	intcode
  3862   000008                     __pintcode:
  3863                           	callstack 0
  3864   000008                     _INTERRUPT_InterruptManager:
  3865                           	callstack 24
  3866                           
  3867                           ; BSR set to: 14
  3868                           ;incstack = 0
  3869   000008  8201               	bsf	int$flags,1,c	;set compiler interrupt flag (level 2)
  3870   00000A  CFFA F002          	movff	pclath,??_INTERRUPT_InterruptManager
  3871   00000E  CFFB F003          	movff	pclatu,??_INTERRUPT_InterruptManager+1
  3872   000012  CFD9 F004          	movff	fsr2l,??_INTERRUPT_InterruptManager+2
  3873   000016  CFDA F005          	movff	fsr2h,??_INTERRUPT_InterruptManager+3
  3874   00001A                     
  3875                           ;mcc_generated_files/interrupt_manager.c: 61:     if(INTCONbits.RBIE == 1 && INTCONbits.
      +                          RBIF == 1)
  3876   00001A  A6F2               	btfss	242,3,c	;volatile
  3877   00001C  EF12  F000         	goto	i2u118_41
  3878   000020  EF14  F000         	goto	i2u118_40
  3879   000024                     i2u118_41:
  3880   000024  EF1F  F000         	goto	i2l253
  3881   000028                     i2u118_40:
  3882   000028  A0F2               	btfss	242,0,c	;volatile
  3883   00002A  EF19  F000         	goto	i2u119_41
  3884   00002E  EF1B  F000         	goto	i2u119_40
  3885   000032                     i2u119_41:
  3886   000032  EF1F  F000         	goto	i2l253
  3887   000036                     i2u119_40:
  3888   000036                     
  3889                           ;mcc_generated_files/interrupt_manager.c: 62:     {;mcc_generated_files/interrupt_manage
      +                          r.c: 63:         PIN_MANAGER_IOC();
  3890   000036  ECEC  F00C         	call	_PIN_MANAGER_IOC	;wreg free
  3891                           
  3892                           ;mcc_generated_files/interrupt_manager.c: 64:     }
  3893   00003A  EF5E  F000         	goto	i2l261
  3894   00003E                     i2l253:
  3895   00003E  ACF2               	btfss	242,6,c	;volatile
  3896   000040  EF24  F000         	goto	i2u120_41
  3897   000044  EF26  F000         	goto	i2u120_40
  3898   000048                     i2u120_41:
  3899   000048  EF5E  F000         	goto	i2l261
  3900   00004C                     i2u120_40:
  3901   00004C                     
  3902                           ;mcc_generated_files/interrupt_manager.c: 66:     {;mcc_generated_files/interrupt_manage
      +                          r.c: 67:         if(PIE1bits.TX1IE == 1 && PIR1bits.TX1IF == 1)
  3903   00004C  A89D               	btfss	157,4,c	;volatile
  3904   00004E  EF2B  F000         	goto	i2u121_41
  3905   000052  EF2D  F000         	goto	i2u121_40
  3906   000056                     i2u121_41:
  3907   000056  EF43  F000         	goto	i2l256
  3908   00005A                     i2u121_40:
  3909   00005A  A89E               	btfss	158,4,c	;volatile
  3910   00005C  EF32  F000         	goto	i2u122_41
  3911   000060  EF34  F000         	goto	i2u122_40
  3912   000064                     i2u122_41:
  3913   000064  EF43  F000         	goto	i2l256
  3914   000068                     i2u122_40:
  3915   000068                     
  3916                           ;mcc_generated_files/interrupt_manager.c: 68:         {;mcc_generated_files/interrupt_ma
      +                          nager.c: 69:             EUSART1_TxDefaultInterruptHandler();
  3917   000068  D802               	call	i2u123_48
  3918   00006A  EF41  F000         	goto	i2u123_49
  3919   00006E                     i2u123_48:
  3920   00006E  0005               	push	
  3921   000070  6EFA               	movwf	pclath,c
  3922   000072  5055               	movf	_EUSART1_TxDefaultInterruptHandler^0,w,c
  3923   000074  6EFD               	movwf	tosl,c
  3924   000076  5056               	movf	(_EUSART1_TxDefaultInterruptHandler+1)^0,w,c
  3925   000078  6EFE               	movwf	tosh,c
  3926   00007A  5057               	movf	(_EUSART1_TxDefaultInterruptHandler+2)^0,w,c
  3927   00007C  6EFF               	movwf	tosu,c
  3928   00007E  50FA               	movf	pclath,w,c
  3929   000080  0012               	return		;indir
  3930   000082                     i2u123_49:
  3931                           
  3932                           ;mcc_generated_files/interrupt_manager.c: 70:         }
  3933   000082  EF5E  F000         	goto	i2l261
  3934   000086                     i2l256:
  3935   000086  AA9D               	btfss	157,5,c	;volatile
  3936   000088  EF48  F000         	goto	i2u124_41
  3937   00008C  EF4A  F000         	goto	i2u124_40
  3938   000090                     i2u124_41:
  3939   000090  EF5E  F000         	goto	i2l261
  3940   000094                     i2u124_40:
  3941   000094  AA9E               	btfss	158,5,c	;volatile
  3942   000096  EF4F  F000         	goto	i2u125_41
  3943   00009A  EF51  F000         	goto	i2u125_40
  3944   00009E                     i2u125_41:
  3945   00009E  EF5E  F000         	goto	i2l261
  3946   0000A2                     i2u125_40:
  3947   0000A2                     
  3948                           ;mcc_generated_files/interrupt_manager.c: 72:         {;mcc_generated_files/interrupt_ma
      +                          nager.c: 73:             EUSART1_RxDefaultInterruptHandler();
  3949   0000A2  D802               	call	i2u126_48
  3950   0000A4  EF5E  F000         	goto	i2u126_49
  3951   0000A8                     i2u126_48:
  3952   0000A8  0005               	push	
  3953   0000AA  6EFA               	movwf	pclath,c
  3954   0000AC  5052               	movf	_EUSART1_RxDefaultInterruptHandler^0,w,c
  3955   0000AE  6EFD               	movwf	tosl,c
  3956   0000B0  5053               	movf	(_EUSART1_RxDefaultInterruptHandler+1)^0,w,c
  3957   0000B2  6EFE               	movwf	tosh,c
  3958   0000B4  5054               	movf	(_EUSART1_RxDefaultInterruptHandler+2)^0,w,c
  3959   0000B6  6EFF               	movwf	tosu,c
  3960   0000B8  50FA               	movf	pclath,w,c
  3961   0000BA  0012               	return		;indir
  3962   0000BC                     i2u126_49:
  3963   0000BC                     i2l261:
  3964   0000BC  C005  FFDA         	movff	??_INTERRUPT_InterruptManager+3,fsr2h
  3965   0000C0  C004  FFD9         	movff	??_INTERRUPT_InterruptManager+2,fsr2l
  3966   0000C4  C003  FFFB         	movff	??_INTERRUPT_InterruptManager+1,pclatu
  3967   0000C8  C002  FFFA         	movff	??_INTERRUPT_InterruptManager,pclath
  3968   0000CC  9201               	bcf	int$flags,1,c	;clear compiler interrupt flag (level 2)
  3969   0000CE  0011               	retfie		f
  3970   0000D0                     __end_of_INTERRUPT_InterruptManager:
  3971                           	callstack 0
  3972                           
  3973 ;; *************** function _PIN_MANAGER_IOC *****************
  3974 ;; Defined at:
  3975 ;;		line 88 in file "mcc_generated_files/pin_manager.c"
  3976 ;; Parameters:    Size  Location     Type
  3977 ;;		None
  3978 ;; Auto vars:     Size  Location     Type
  3979 ;;		None
  3980 ;; Return value:  Size  Location     Type
  3981 ;;                  1    wreg      void 
  3982 ;; Registers used:
  3983 ;;		None
  3984 ;; Tracked objects:
  3985 ;;		On entry : 0/0
  3986 ;;		On exit  : 0/0
  3987 ;;		Unchanged: 0/0
  3988 ;; Data sizes:     COMRAM   BANK0   BANK1   BANK2   BANK3   BANK4   BANK5   BANK6   BANK7   BANK8   BANK9  BANK10  BANK1
      +1  BANK12  BANK13  BANK14  BANK15
  3989 ;;      Params:         0       0       0       0       0       0       0       0       0       0       0       0       
      +0       0       0       0       0
  3990 ;;      Locals:         0       0       0       0       0       0       0       0       0       0       0       0       
      +0       0       0       0       0
  3991 ;;      Temps:          0       0       0       0       0       0       0       0       0       0       0       0       
      +0       0       0       0       0
  3992 ;;      Totals:         0       0       0       0       0       0       0       0       0       0       0       0       
      +0       0       0       0       0
  3993 ;;Total ram usage:        0 bytes
  3994 ;; Hardware stack levels used: 1
  3995 ;; This function calls:
  3996 ;;		Nothing
  3997 ;; This function is called by:
  3998 ;;		_INTERRUPT_InterruptManager
  3999 ;; This function uses a non-reentrant model
  4000 ;;
  4001                           
  4002                           	psect	text17
  4003   0019D8                     __ptext17:
  4004                           	callstack 0
  4005   0019D8                     _PIN_MANAGER_IOC:
  4006                           	callstack 26
  4007   0019D8                     
  4008                           ;mcc_generated_files/pin_manager.c: 92:     INTCONbits.RBIF = 0;
  4009   0019D8  90F2               	bcf	242,0,c	;volatile
  4010   0019DA  0012               	return		;funcret
  4011   0019DC                     __end_of_PIN_MANAGER_IOC:
  4012                           	callstack 0
  4013                           
  4014 ;; *************** function _EUSART1_Transmit_ISR *****************
  4015 ;; Defined at:
  4016 ;;		line 206 in file "mcc_generated_files/eusart1.c"
  4017 ;; Parameters:    Size  Location     Type
  4018 ;;		None
  4019 ;; Auto vars:     Size  Location     Type
  4020 ;;		None
  4021 ;; Return value:  Size  Location     Type
  4022 ;;                  1    wreg      void 
  4023 ;; Registers used:
  4024 ;;		wreg, fsr2l, fsr2h, status,2, status,0
  4025 ;; Tracked objects:
  4026 ;;		On entry : 0/0
  4027 ;;		On exit  : 0/0
  4028 ;;		Unchanged: 0/0
  4029 ;; Data sizes:     COMRAM   BANK0   BANK1   BANK2   BANK3   BANK4   BANK5   BANK6   BANK7   BANK8   BANK9  BANK10  BANK1
      +1  BANK12  BANK13  BANK14  BANK15
  4030 ;;      Params:         0       0       0       0       0       0       0       0       0       0       0       0       
      +0       0       0       0       0
  4031 ;;      Locals:         0       0       0       0       0       0       0       0       0       0       0       0       
      +0       0       0       0       0
  4032 ;;      Temps:          0       0       0       0       0       0       0       0       0       0       0       0       
      +0       0       0       0       0
  4033 ;;      Totals:         0       0       0       0       0       0       0       0       0       0       0       0       
      +0       0       0       0       0
  4034 ;;Total ram usage:        0 bytes
  4035 ;; Hardware stack levels used: 1
  4036 ;; This function calls:
  4037 ;;		Nothing
  4038 ;; This function is called by:
  4039 ;;		_EUSART1_Initialize
  4040 ;;		_INTERRUPT_InterruptManager
  4041 ;; This function uses a non-reentrant model
  4042 ;;
  4043                           
  4044                           	psect	text18
  4045   001898                     __ptext18:
  4046                           	callstack 0
  4047   001898                     _EUSART1_Transmit_ISR:
  4048                           	callstack 26
  4049   001898                     
  4050                           ;mcc_generated_files/eusart1.c: 210:     if(sizeof(eusart1TxBuffer) > eusart1TxBufferRem
      +                          aining)
  4051   001898  0E08               	movlw	8
  4052   00189A  604F               	cpfslt	_eusart1TxBufferRemaining^0,c	;volatile
  4053   00189C  EF52  F00C         	goto	i2u42_41
  4054   0018A0  EF54  F00C         	goto	i2u42_40
  4055   0018A4                     i2u42_41:
  4056   0018A4  EF67  F00C         	goto	i2l193
  4057   0018A8                     i2u42_40:
  4058   0018A8                     
  4059                           ;mcc_generated_files/eusart1.c: 211:     {;mcc_generated_files/eusart1.c: 212:         T
      +                          XREG1 = eusart1TxBuffer[eusart1TxTail++];
  4060   0018A8  5050               	movf	_eusart1TxTail^0,w,c
  4061   0018AA  0F43               	addlw	low _eusart1TxBuffer
  4062   0018AC  6ED9               	movwf	fsr2l,c
  4063   0018AE  6ADA               	clrf	fsr2h,c
  4064   0018B0  50DF               	movf	indf2,w,c
  4065   0018B2  6EAD               	movwf	173,c	;volatile
  4066   0018B4  2A50               	incf	_eusart1TxTail^0,f,c	;volatile
  4067   0018B6                     
  4068                           ;mcc_generated_files/eusart1.c: 213:         if(sizeof(eusart1TxBuffer) <= eusart1TxTail
      +                          )
  4069   0018B6  0E07               	movlw	7
  4070   0018B8  6450               	cpfsgt	_eusart1TxTail^0,c	;volatile
  4071   0018BA  EF61  F00C         	goto	i2u43_41
  4072   0018BE  EF63  F00C         	goto	i2u43_40
  4073   0018C2                     i2u43_41:
  4074   0018C2  EF64  F00C         	goto	i2l1424
  4075   0018C6                     i2u43_40:
  4076   0018C6                     
  4077                           ;mcc_generated_files/eusart1.c: 214:         {;mcc_generated_files/eusart1.c: 215:      
      +                                 eusart1TxTail = 0;
  4078   0018C6  6A50               	clrf	_eusart1TxTail^0,c	;volatile
  4079   0018C8                     i2l1424:
  4080                           
  4081                           ;mcc_generated_files/eusart1.c: 217:         eusart1TxBufferRemaining++;
  4082   0018C8  2A4F               	incf	_eusart1TxBufferRemaining^0,f,c	;volatile
  4083                           
  4084                           ;mcc_generated_files/eusart1.c: 218:     }
  4085   0018CA  EF68  F00C         	goto	i2l196
  4086   0018CE                     i2l193:
  4087                           
  4088                           ;mcc_generated_files/eusart1.c: 220:     {;mcc_generated_files/eusart1.c: 221:         P
      +                          IE1bits.TX1IE = 0;
  4089   0018CE  989D               	bcf	157,4,c	;volatile
  4090   0018D0                     i2l196:
  4091   0018D0  0012               	return		;funcret
  4092   0018D2                     __end_of_EUSART1_Transmit_ISR:
  4093                           	callstack 0
  4094                           
  4095 ;; *************** function _EUSART1_Receive_ISR *****************
  4096 ;; Defined at:
  4097 ;;		line 225 in file "mcc_generated_files/eusart1.c"
  4098 ;; Parameters:    Size  Location     Type
  4099 ;;		None
  4100 ;; Auto vars:     Size  Location     Type
  4101 ;;		None
  4102 ;; Return value:  Size  Location     Type
  4103 ;;                  1    wreg      void 
  4104 ;; Registers used:
  4105 ;;		wreg, fsr2l, fsr2h, status,2, status,0, pcl, pclath, pclatu, tosl, cstack
  4106 ;; Tracked objects:
  4107 ;;		On entry : 0/0
  4108 ;;		On exit  : 0/0
  4109 ;;		Unchanged: 0/0
  4110 ;; Data sizes:     COMRAM   BANK0   BANK1   BANK2   BANK3   BANK4   BANK5   BANK6   BANK7   BANK8   BANK9  BANK10  BANK1
      +1  BANK12  BANK13  BANK14  BANK15
  4111 ;;      Params:         0       0       0       0       0       0       0       0       0       0       0       0       
      +0       0       0       0       0
  4112 ;;      Locals:         0       0       0       0       0       0       0       0       0       0       0       0       
      +0       0       0       0       0
  4113 ;;      Temps:          0       0       0       0       0       0       0       0       0       0       0       0       
      +0       0       0       0       0
  4114 ;;      Totals:         0       0       0       0       0       0       0       0       0       0       0       0       
      +0       0       0       0       0
  4115 ;;Total ram usage:        0 bytes
  4116 ;; Hardware stack levels used: 1
  4117 ;; Hardware stack levels required when called: 2
  4118 ;; This function calls:
  4119 ;;		NULL
  4120 ;;		_EUSART1_DefaultErrorHandler
  4121 ;;		_EUSART1_DefaultFramingErrorHandler
  4122 ;;		_EUSART1_DefaultOverrunErrorHandler
  4123 ;;		_EUSART1_RxDataHandler
  4124 ;; This function is called by:
  4125 ;;		_EUSART1_Initialize
  4126 ;;		_INTERRUPT_InterruptManager
  4127 ;; This function uses a non-reentrant model
  4128 ;;
  4129                           
  4130                           	psect	text19
  4131   00164A                     __ptext19:
  4132                           	callstack 0
  4133   00164A                     _EUSART1_Receive_ISR:
  4134                           	callstack 24
  4135   00164A                     
  4136                           ;mcc_generated_files/eusart1.c: 228:     eusart1RxStatusBuffer[eusart1RxHead].status = 0
      +                          ;
  4137   00164A  504E               	movf	_eusart1RxHead^0,w,c
  4138   00164C  0F3B               	addlw	low _eusart1RxStatusBuffer
  4139   00164E  6ED9               	movwf	fsr2l,c
  4140   001650  6ADA               	clrf	fsr2h,c
  4141   001652  6ADF               	clrf	indf2,c
  4142   001654                     
  4143                           ;mcc_generated_files/eusart1.c: 230:     if(RCSTA1bits.FERR){
  4144   001654  A4AB               	btfss	171,2,c	;volatile
  4145   001656  EF2F  F00B         	goto	i2u108_41
  4146   00165A  EF31  F00B         	goto	i2u108_40
  4147   00165E                     i2u108_41:
  4148   00165E  EF44  F00B         	goto	i2l1862
  4149   001662                     i2u108_40:
  4150   001662                     
  4151                           ;mcc_generated_files/eusart1.c: 231:         eusart1RxStatusBuffer[eusart1RxHead].ferr =
      +                           1;
  4152   001662  504E               	movf	_eusart1RxHead^0,w,c
  4153   001664  0F3B               	addlw	low _eusart1RxStatusBuffer
  4154   001666  6ED9               	movwf	fsr2l,c
  4155   001668  6ADA               	clrf	fsr2h,c
  4156   00166A  82DF               	bsf	indf2,1,c
  4157   00166C                     
  4158                           ;mcc_generated_files/eusart1.c: 232:         EUSART1_FramingErrorHandler();
  4159   00166C  D802               	call	i2u109_48
  4160   00166E  EF44  F00B         	goto	i2u109_49
  4161   001672                     i2u109_48:
  4162   001672  0005               	push	
  4163   001674  6EFA               	movwf	pclath,c
  4164   001676  0100               	movlb	0	; () banked
  4165   001678  5166               	movf	_EUSART1_FramingErrorHandler& (0+255),w,b
  4166   00167A  6EFD               	movwf	tosl,c
  4167   00167C  5167               	movf	(_EUSART1_FramingErrorHandler+1)& (0+255),w,b
  4168   00167E  6EFE               	movwf	tosh,c
  4169   001680  5168               	movf	(_EUSART1_FramingErrorHandler+2)& (0+255),w,b
  4170   001682  6EFF               	movwf	tosu,c
  4171   001684  50FA               	movf	pclath,w,c
  4172   001686  0012               	return		;indir
  4173   001688                     i2u109_49:
  4174   001688                     i2l1862:
  4175                           
  4176                           ;mcc_generated_files/eusart1.c: 235:     if(RCSTA1bits.OERR){
  4177   001688  A2AB               	btfss	171,1,c	;volatile
  4178   00168A  EF49  F00B         	goto	i2u110_41
  4179   00168E  EF4B  F00B         	goto	i2u110_40
  4180   001692                     i2u110_41:
  4181   001692  EF5E  F00B         	goto	i2l1868
  4182   001696                     i2u110_40:
  4183   001696                     
  4184                           ;mcc_generated_files/eusart1.c: 236:         eusart1RxStatusBuffer[eusart1RxHead].oerr =
      +                           1;
  4185   001696  504E               	movf	_eusart1RxHead^0,w,c
  4186   001698  0F3B               	addlw	low _eusart1RxStatusBuffer
  4187   00169A  6ED9               	movwf	fsr2l,c
  4188   00169C  6ADA               	clrf	fsr2h,c
  4189   00169E  84DF               	bsf	indf2,2,c
  4190   0016A0                     
  4191                           ;mcc_generated_files/eusart1.c: 237:         EUSART1_OverrunErrorHandler();
  4192   0016A0  D802               	call	i2u111_48
  4193   0016A2  EF5E  F00B         	goto	i2u111_49
  4194   0016A6                     i2u111_48:
  4195   0016A6  0005               	push	
  4196   0016A8  6EFA               	movwf	pclath,c
  4197   0016AA  0100               	movlb	0	; () banked
  4198   0016AC  5163               	movf	_EUSART1_OverrunErrorHandler& (0+255),w,b
  4199   0016AE  6EFD               	movwf	tosl,c
  4200   0016B0  5164               	movf	(_EUSART1_OverrunErrorHandler+1)& (0+255),w,b
  4201   0016B2  6EFE               	movwf	tosh,c
  4202   0016B4  5165               	movf	(_EUSART1_OverrunErrorHandler+2)& (0+255),w,b
  4203   0016B6  6EFF               	movwf	tosu,c
  4204   0016B8  50FA               	movf	pclath,w,c
  4205   0016BA  0012               	return		;indir
  4206   0016BC                     i2u111_49:
  4207   0016BC                     i2l1868:
  4208                           
  4209                           ;mcc_generated_files/eusart1.c: 240:     if(eusart1RxStatusBuffer[eusart1RxHead].status)
      +                          {
  4210   0016BC  504E               	movf	_eusart1RxHead^0,w,c
  4211   0016BE  0F3B               	addlw	low _eusart1RxStatusBuffer
  4212   0016C0  6ED9               	movwf	fsr2l,c
  4213   0016C2  6ADA               	clrf	fsr2h,c
  4214   0016C4  50DF               	movf	indf2,w,c
  4215   0016C6  B4D8               	btfsc	status,2,c
  4216   0016C8  EF68  F00B         	goto	i2u112_41
  4217   0016CC  EF6A  F00B         	goto	i2u112_40
  4218   0016D0                     i2u112_41:
  4219   0016D0  EF7A  F00B         	goto	i2l1872
  4220   0016D4                     i2u112_40:
  4221   0016D4                     
  4222                           ;mcc_generated_files/eusart1.c: 241:         EUSART1_ErrorHandler();
  4223   0016D4  D802               	call	i2u113_48
  4224   0016D6  EF78  F00B         	goto	i2u113_49
  4225   0016DA                     i2u113_48:
  4226   0016DA  0005               	push	
  4227   0016DC  6EFA               	movwf	pclath,c
  4228   0016DE  0100               	movlb	0	; () banked
  4229   0016E0  5160               	movf	_EUSART1_ErrorHandler& (0+255),w,b
  4230   0016E2  6EFD               	movwf	tosl,c
  4231   0016E4  5161               	movf	(_EUSART1_ErrorHandler+1)& (0+255),w,b
  4232   0016E6  6EFE               	movwf	tosh,c
  4233   0016E8  5162               	movf	(_EUSART1_ErrorHandler+2)& (0+255),w,b
  4234   0016EA  6EFF               	movwf	tosu,c
  4235   0016EC  50FA               	movf	pclath,w,c
  4236   0016EE  0012               	return		;indir
  4237   0016F0                     i2u113_49:
  4238                           
  4239                           ;mcc_generated_files/eusart1.c: 242:     } else {
  4240   0016F0  EF7C  F00B         	goto	i2l203
  4241   0016F4                     i2l1872:
  4242                           
  4243                           ;mcc_generated_files/eusart1.c: 243:         EUSART1_RxDataHandler();
  4244   0016F4  EC82  F00C         	call	_EUSART1_RxDataHandler	;wreg free
  4245   0016F8                     i2l203:
  4246   0016F8  0012               	return		;funcret
  4247   0016FA                     __end_of_EUSART1_Receive_ISR:
  4248                           	callstack 0
  4249                           
  4250 ;; *************** function _EUSART1_DefaultOverrunErrorHandler *****************
  4251 ;; Defined at:
  4252 ;;		line 261 in file "mcc_generated_files/eusart1.c"
  4253 ;; Parameters:    Size  Location     Type
  4254 ;;		None
  4255 ;; Auto vars:     Size  Location     Type
  4256 ;;		None
  4257 ;; Return value:  Size  Location     Type
  4258 ;;                  1    wreg      void 
  4259 ;; Registers used:
  4260 ;;		None
  4261 ;; Tracked objects:
  4262 ;;		On entry : 0/0
  4263 ;;		On exit  : 0/0
  4264 ;;		Unchanged: 0/0
  4265 ;; Data sizes:     COMRAM   BANK0   BANK1   BANK2   BANK3   BANK4   BANK5   BANK6   BANK7   BANK8   BANK9  BANK10  BANK1
      +1  BANK12  BANK13  BANK14  BANK15
  4266 ;;      Params:         0       0       0       0       0       0       0       0       0       0       0       0       
      +0       0       0       0       0
  4267 ;;      Locals:         0       0       0       0       0       0       0       0       0       0       0       0       
      +0       0       0       0       0
  4268 ;;      Temps:          0       0       0       0       0       0       0       0       0       0       0       0       
      +0       0       0       0       0
  4269 ;;      Totals:         0       0       0       0       0       0       0       0       0       0       0       0       
      +0       0       0       0       0
  4270 ;;Total ram usage:        0 bytes
  4271 ;; Hardware stack levels used: 1
  4272 ;; This function calls:
  4273 ;;		Nothing
  4274 ;; This function is called by:
  4275 ;;		_EUSART1_Initialize
  4276 ;;		_EUSART1_Receive_ISR
  4277 ;; This function uses a non-reentrant model
  4278 ;;
  4279                           
  4280                           	psect	text20
  4281   0019C8                     __ptext20:
  4282                           	callstack 0
  4283   0019C8                     _EUSART1_DefaultOverrunErrorHandler:
  4284                           	callstack 25
  4285   0019C8                     
  4286                           ;mcc_generated_files/eusart1.c: 264:     RCSTA1bits.CREN = 0;
  4287   0019C8  98AB               	bcf	171,4,c	;volatile
  4288                           
  4289                           ;mcc_generated_files/eusart1.c: 265:     RCSTA1bits.CREN = 1;
  4290   0019CA  88AB               	bsf	171,4,c	;volatile
  4291   0019CC  0012               	return		;funcret
  4292   0019CE                     __end_of_EUSART1_DefaultOverrunErrorHandler:
  4293                           	callstack 0
  4294                           
  4295 ;; *************** function _EUSART1_DefaultFramingErrorHandler *****************
  4296 ;; Defined at:
  4297 ;;		line 259 in file "mcc_generated_files/eusart1.c"
  4298 ;; Parameters:    Size  Location     Type
  4299 ;;		None
  4300 ;; Auto vars:     Size  Location     Type
  4301 ;;		None
  4302 ;; Return value:  Size  Location     Type
  4303 ;;                  1    wreg      void 
  4304 ;; Registers used:
  4305 ;;		None
  4306 ;; Tracked objects:
  4307 ;;		On entry : 0/0
  4308 ;;		On exit  : 0/0
  4309 ;;		Unchanged: 0/0
  4310 ;; Data sizes:     COMRAM   BANK0   BANK1   BANK2   BANK3   BANK4   BANK5   BANK6   BANK7   BANK8   BANK9  BANK10  BANK1
      +1  BANK12  BANK13  BANK14  BANK15
  4311 ;;      Params:         0       0       0       0       0       0       0       0       0       0       0       0       
      +0       0       0       0       0
  4312 ;;      Locals:         0       0       0       0       0       0       0       0       0       0       0       0       
      +0       0       0       0       0
  4313 ;;      Temps:          0       0       0       0       0       0       0       0       0       0       0       0       
      +0       0       0       0       0
  4314 ;;      Totals:         0       0       0       0       0       0       0       0       0       0       0       0       
      +0       0       0       0       0
  4315 ;;Total ram usage:        0 bytes
  4316 ;; Hardware stack levels used: 1
  4317 ;; This function calls:
  4318 ;;		Nothing
  4319 ;; This function is called by:
  4320 ;;		_EUSART1_Initialize
  4321 ;;		_EUSART1_Receive_ISR
  4322 ;; This function uses a non-reentrant model
  4323 ;;
  4324                           
  4325                           	psect	text21
  4326   0019DC                     __ptext21:
  4327                           	callstack 0
  4328   0019DC                     _EUSART1_DefaultFramingErrorHandler:
  4329                           	callstack 25
  4330   0019DC  0012               	return		;funcret
  4331   0019DE                     __end_of_EUSART1_DefaultFramingErrorHandler:
  4332                           	callstack 0
  4333                           
  4334 ;; *************** function _EUSART1_DefaultErrorHandler *****************
  4335 ;; Defined at:
  4336 ;;		line 269 in file "mcc_generated_files/eusart1.c"
  4337 ;; Parameters:    Size  Location     Type
  4338 ;;		None
  4339 ;; Auto vars:     Size  Location     Type
  4340 ;;		None
  4341 ;; Return value:  Size  Location     Type
  4342 ;;                  1    wreg      void 
  4343 ;; Registers used:
  4344 ;;		wreg, fsr2l, fsr2h, status,2, status,0, cstack
  4345 ;; Tracked objects:
  4346 ;;		On entry : 0/0
  4347 ;;		On exit  : 0/0
  4348 ;;		Unchanged: 0/0
  4349 ;; Data sizes:     COMRAM   BANK0   BANK1   BANK2   BANK3   BANK4   BANK5   BANK6   BANK7   BANK8   BANK9  BANK10  BANK1
      +1  BANK12  BANK13  BANK14  BANK15
  4350 ;;      Params:         0       0       0       0       0       0       0       0       0       0       0       0       
      +0       0       0       0       0
  4351 ;;      Locals:         0       0       0       0       0       0       0       0       0       0       0       0       
      +0       0       0       0       0
  4352 ;;      Temps:          0       0       0       0       0       0       0       0       0       0       0       0       
      +0       0       0       0       0
  4353 ;;      Totals:         0       0       0       0       0       0       0       0       0       0       0       0       
      +0       0       0       0       0
  4354 ;;Total ram usage:        0 bytes
  4355 ;; Hardware stack levels used: 1
  4356 ;; Hardware stack levels required when called: 1
  4357 ;; This function calls:
  4358 ;;		_EUSART1_RxDataHandler
  4359 ;; This function is called by:
  4360 ;;		_EUSART1_Initialize
  4361 ;;		_EUSART1_Receive_ISR
  4362 ;; This function uses a non-reentrant model
  4363 ;;
  4364                           
  4365                           	psect	text22
  4366   0019CE                     __ptext22:
  4367                           	callstack 0
  4368   0019CE                     _EUSART1_DefaultErrorHandler:
  4369                           	callstack 24
  4370   0019CE                     
  4371                           ;mcc_generated_files/eusart1.c: 270:     EUSART1_RxDataHandler();
  4372   0019CE  EC82  F00C         	call	_EUSART1_RxDataHandler	;wreg free
  4373   0019D2  0012               	return		;funcret
  4374   0019D4                     __end_of_EUSART1_DefaultErrorHandler:
  4375                           	callstack 0
  4376                           
  4377 ;; *************** function _EUSART1_RxDataHandler *****************
  4378 ;; Defined at:
  4379 ;;		line 249 in file "mcc_generated_files/eusart1.c"
  4380 ;; Parameters:    Size  Location     Type
  4381 ;;		None
  4382 ;; Auto vars:     Size  Location     Type
  4383 ;;		None
  4384 ;; Return value:  Size  Location     Type
  4385 ;;                  1    wreg      void 
  4386 ;; Registers used:
  4387 ;;		wreg, fsr2l, fsr2h, status,2, status,0
  4388 ;; Tracked objects:
  4389 ;;		On entry : 0/0
  4390 ;;		On exit  : 0/0
  4391 ;;		Unchanged: 0/0
  4392 ;; Data sizes:     COMRAM   BANK0   BANK1   BANK2   BANK3   BANK4   BANK5   BANK6   BANK7   BANK8   BANK9  BANK10  BANK1
      +1  BANK12  BANK13  BANK14  BANK15
  4393 ;;      Params:         0       0       0       0       0       0       0       0       0       0       0       0       
      +0       0       0       0       0
  4394 ;;      Locals:         0       0       0       0       0       0       0       0       0       0       0       0       
      +0       0       0       0       0
  4395 ;;      Temps:          0       0       0       0       0       0       0       0       0       0       0       0       
      +0       0       0       0       0
  4396 ;;      Totals:         0       0       0       0       0       0       0       0       0       0       0       0       
      +0       0       0       0       0
  4397 ;;Total ram usage:        0 bytes
  4398 ;; Hardware stack levels used: 1
  4399 ;; This function calls:
  4400 ;;		Nothing
  4401 ;; This function is called by:
  4402 ;;		_EUSART1_Receive_ISR
  4403 ;;		_EUSART1_DefaultErrorHandler
  4404 ;; This function uses a non-reentrant model
  4405 ;;
  4406                           
  4407                           	psect	text23
  4408   001904                     __ptext23:
  4409                           	callstack 0
  4410   001904                     _EUSART1_RxDataHandler:
  4411                           	callstack 24
  4412   001904                     
  4413                           ;mcc_generated_files/eusart1.c: 251:     eusart1RxBuffer[eusart1RxHead++] = RCREG1;
  4414   001904  504E               	movf	_eusart1RxHead^0,w,c
  4415   001906  0F69               	addlw	low _eusart1RxBuffer
  4416   001908  6ED9               	movwf	fsr2l,c
  4417   00190A  6ADA               	clrf	fsr2h,c
  4418   00190C  CFAE FFDF          	movff	4014,indf2	;volatile
  4419   001910  2A4E               	incf	_eusart1RxHead^0,f,c	;volatile
  4420   001912                     
  4421                           ;mcc_generated_files/eusart1.c: 252:     if(sizeof(eusart1RxBuffer) <= eusart1RxHead)
  4422   001912  0E07               	movlw	7
  4423   001914  644E               	cpfsgt	_eusart1RxHead^0,c	;volatile
  4424   001916  EF8F  F00C         	goto	i2u67_41
  4425   00191A  EF91  F00C         	goto	i2u67_40
  4426   00191E                     i2u67_41:
  4427   00191E  EF92  F00C         	goto	i2l1576
  4428   001922                     i2u67_40:
  4429   001922                     
  4430                           ;mcc_generated_files/eusart1.c: 253:     {;mcc_generated_files/eusart1.c: 254:         e
      +                          usart1RxHead = 0;
  4431   001922  6A4E               	clrf	_eusart1RxHead^0,c	;volatile
  4432   001924                     i2l1576:
  4433                           
  4434                           ;mcc_generated_files/eusart1.c: 256:     eusart1RxCount++;
  4435   001924  2A4C               	incf	_eusart1RxCount^0,f,c	;volatile
  4436   001926  0012               	return		;funcret
  4437   001928                     __end_of_EUSART1_RxDataHandler:
  4438                           	callstack 0
  4439                           
  4440                           	psect	smallconst
  4441   001000                     __psmallconst:
  4442                           	callstack 0
  4443   001000  00                 	db	0
  4444   001001  00                 	db	0	; dummy byte at the end
  4445   001000                     __smallconst    set	__psmallconst
  4446   001000                     __mediumconst   set	__psmallconst
  4447   000003                     __activetblptr  equ	3
  4448                           
  4449                           	psect	rparam
  4450   000001                     ___rparam_used  equ	1
  4451   000000                     ___param_bank   equ	0
  4452   000000                     __Lparam        equ	__Lrparam
  4453   000000                     __Hparam        equ	__Hrparam
  4454   000001                     btemp           set	1	;btemp
  4455   000001                     int$flags       set	1
  4456   000001                     btemp0          set	1
  4457   000002                     btemp1          set	2
  4458                           
  4459                           	psect	config
  4460                           
  4461                           ;Config register CONFIG1L @ 0x1FFF8
  4462                           ;	Watchdog Timer Enable bit
  4463                           ;	WDT = OFF, WDT disabled (control is placed on SWDTEN bit)
  4464                           ;	Stack Overflow/Underflow Reset Enable bit
  4465                           ;	STVR = ON, Reset on stack overflow/underflow enabled
  4466                           ;	Extended Instruction Set Enable bit
  4467                           ;	XINST = OFF, Instruction set extension and Indexed Addressing mode disabled (Legacy mo
      +                          de)
  4468                           ;	Background Debugger Enable bit
  4469                           ;	DEBUG = OFF, Background debugger disabled; RB6 and RB7 configured as general purpose I
      +                          /O pins
  4470   01FFF8                     	org	131064
  4471   01FFF8  A0                 	db	160
  4472                           
  4473                           ;Config register CONFIG1H @ 0x1FFF9
  4474                           ;	Code Protection bit
  4475                           ;	CP0 = OFF, Program memory is not code-protected
  4476   01FFF9                     	org	131065
  4477   01FFF9  F4                 	db	244
  4478                           
  4479                           ;Config register CONFIG2L @ 0x1FFFA
  4480                           ;	Oscillator Selection bits
  4481                           ;	FOSC = HSPLL, HS oscillator, PLL enabled and under software control
  4482                           ;	Default/Reset System Clock Select bit
  4483                           ;	FOSC2 = ON, Clock selected by FOSC1:FOSC0 as system clock is enabled when OSCCON<1:0> 
      +                          = 00
  4484                           ;	Fail-Safe Clock Monitor Enable
  4485                           ;	FCMEN = ON, Fail-Safe Clock Monitor enabled
  4486                           ;	Two-Speed Start-up (Internal/External Oscillator Switchover) Control bit
  4487                           ;	IESO = ON, Two-Speed Start-up enabled
  4488   01FFFA                     	org	131066
  4489   01FFFA  C5                 	db	197
  4490                           
  4491                           ;Config register CONFIG2H @ 0x1FFFB
  4492                           ;	Watchdog Timer Postscaler Select bits
  4493                           ;	WDTPS = 32768, 1:32768
  4494   01FFFB                     	org	131067
  4495   01FFFB  FF                 	db	255
  4496                           
  4497                           ;Config register CONFIG3L @ 0x1FFFC
  4498                           ;	unspecified, using default values
  4499   01FFFC                     	org	131068
  4500   01FFFC  F8                 	db	248
  4501                           
  4502                           ;Config register CONFIG3H @ 0x1FFFD
  4503                           ;	Ethernet LED Enable bit
  4504                           ;	ETHLED = ON, RA0/RA1 are multiplexed with LEDA/LEDB when Ethernet module is enabled an
      +                          d function as I/O when Ethernet is disabled
  4505   01FFFD                     	org	131069
  4506   01FFFD  F7                 	db	247
  4507                           tosu	equ	0xFFF
  4508                           tosh	equ	0xFFE
  4509                           tosl	equ	0xFFD
  4510                           stkptr	equ	0xFFC
  4511                           pclatu	equ	0xFFB
  4512                           pclath	equ	0xFFA
  4513                           pcl	equ	0xFF9
  4514                           tblptru	equ	0xFF8
  4515                           tblptrh	equ	0xFF7
  4516                           tblptrl	equ	0xFF6
  4517                           tablat	equ	0xFF5
  4518                           prodh	equ	0xFF4
  4519                           prodl	equ	0xFF3
  4520                           indf0	equ	0xFEF
  4521                           postinc0	equ	0xFEE
  4522                           postdec0	equ	0xFED
  4523                           preinc0	equ	0xFEC
  4524                           plusw0	equ	0xFEB
  4525                           fsr0h	equ	0xFEA
  4526                           fsr0l	equ	0xFE9
  4527                           wreg	equ	0xFE8
  4528                           indf1	equ	0xFE7
  4529                           postinc1	equ	0xFE6
  4530                           postdec1	equ	0xFE5
  4531                           preinc1	equ	0xFE4
  4532                           plusw1	equ	0xFE3
  4533                           fsr1h	equ	0xFE2
  4534                           fsr1l	equ	0xFE1
  4535                           bsr	equ	0xFE0
  4536                           indf2	equ	0xFDF
  4537                           postinc2	equ	0xFDE
  4538                           postdec2	equ	0xFDD
  4539                           preinc2	equ	0xFDC
  4540                           plusw2	equ	0xFDB
  4541                           fsr2h	equ	0xFDA
  4542                           fsr2l	equ	0xFD9
  4543                           status	equ	0xFD8

Data Sizes:
    Strings     0
    Constant    0
    Data        0
    BSS         31
    Persistent  15
    Stack       0

Auto Spaces:
    Space          Size  Autos    Used
    COMRAM           94     57      86
    BANK0           160      8      25
    BANK1           256      0       0
    BANK2           256      0       0
    BANK3           256      0       0
    BANK4           256      0       0
    BANK5           256      0       0
    BANK6           256      0       0
    BANK7           256      0       0
    BANK8           256      0       0
    BANK9           256      0       0
    BANK10          256      0       0
    BANK11          256      0       0
    BANK12          256      0       0
    BANK13          256      0       0
    BANK14          128      0       0
    BANK15           96      0       0

Pointer List with Targets:

    EUSART1_ErrorHandler	PTR FTN()void  size(3) Largest target is 1
		 -> EUSART1_DefaultErrorHandler(), NULL(), 

    EUSART1_FramingErrorHandler	PTR FTN()void  size(3) Largest target is 1
		 -> EUSART1_DefaultFramingErrorHandler(), NULL(), 

    EUSART1_OverrunErrorHandler	PTR FTN()void  size(3) Largest target is 1
		 -> EUSART1_DefaultOverrunErrorHandler(), NULL(), 

    EUSART1_RxDefaultInterruptHandler	PTR FTN()void  size(3) Largest target is 1
		 -> EUSART1_Receive_ISR(), NULL(), 

    EUSART1_SetErrorHandler@interruptHandler	PTR FTN()void  size(3) Largest target is 1
		 -> EUSART1_DefaultErrorHandler(), 

    EUSART1_SetFramingErrorHandler@interruptHandler	PTR FTN()void  size(3) Largest target is 1
		 -> EUSART1_DefaultFramingErrorHandler(), 

    EUSART1_SetOverrunErrorHandler@interruptHandler	PTR FTN()void  size(3) Largest target is 1
		 -> EUSART1_DefaultOverrunErrorHandler(), 

    EUSART1_SetRxInterruptHandler@interruptHandler	PTR FTN()void  size(3) Largest target is 1
		 -> EUSART1_Receive_ISR(), 

    EUSART1_SetTxInterruptHandler@interruptHandler	PTR FTN()void  size(3) Largest target is 1
		 -> EUSART1_Transmit_ISR(), 

    EUSART1_TxDefaultInterruptHandler	PTR FTN()void  size(3) Largest target is 1
		 -> EUSART1_Transmit_ISR(), NULL(), 


Critical Paths under _main in COMRAM

    _main->_calc_dist
    _calc_dist->___fltol
    ___fltol->___fldiv
    ___fldiv->___xxtofl
    _EUSART1_Initialize->_EUSART1_SetErrorHandler
    _EUSART1_Initialize->_EUSART1_SetFramingErrorHandler
    _EUSART1_Initialize->_EUSART1_SetOverrunErrorHandler
    _EUSART1_Initialize->_EUSART1_SetRxInterruptHandler
    _EUSART1_Initialize->_EUSART1_SetTxInterruptHandler

Critical Paths under _INTERRUPT_InterruptManager in COMRAM

    None.

Critical Paths under _main in BANK0

    _main->_calc_dist

Critical Paths under _INTERRUPT_InterruptManager in BANK0

    None.

Critical Paths under _main in BANK1

    None.

Critical Paths under _INTERRUPT_InterruptManager in BANK1

    None.

Critical Paths under _main in BANK2

    None.

Critical Paths under _INTERRUPT_InterruptManager in BANK2

    None.

Critical Paths under _main in BANK3

    None.

Critical Paths under _INTERRUPT_InterruptManager in BANK3

    None.

Critical Paths under _main in BANK4

    None.

Critical Paths under _INTERRUPT_InterruptManager in BANK4

    None.

Critical Paths under _main in BANK5

    None.

Critical Paths under _INTERRUPT_InterruptManager in BANK5

    None.

Critical Paths under _main in BANK6

    None.

Critical Paths under _INTERRUPT_InterruptManager in BANK6

    None.

Critical Paths under _main in BANK7

    None.

Critical Paths under _INTERRUPT_InterruptManager in BANK7

    None.

Critical Paths under _main in BANK8

    None.

Critical Paths under _INTERRUPT_InterruptManager in BANK8

    None.

Critical Paths under _main in BANK9

    None.

Critical Paths under _INTERRUPT_InterruptManager in BANK9

    None.

Critical Paths under _main in BANK10

    None.

Critical Paths under _INTERRUPT_InterruptManager in BANK10

    None.

Critical Paths under _main in BANK11

    None.

Critical Paths under _INTERRUPT_InterruptManager in BANK11

    None.

Critical Paths under _main in BANK12

    None.

Critical Paths under _INTERRUPT_InterruptManager in BANK12

    None.

Critical Paths under _main in BANK13

    None.

Critical Paths under _INTERRUPT_InterruptManager in BANK13

    None.

Critical Paths under _main in BANK14

    None.

Critical Paths under _INTERRUPT_InterruptManager in BANK14

    None.

Critical Paths under _main in BANK15

    None.

Critical Paths under _INTERRUPT_InterruptManager in BANK15

    None.

Call Graph Tables:

 ---------------------------------------------------------------------------------
 (Depth) Function   	        Calls       Base Space   Used Autos Params    Refs
 ---------------------------------------------------------------------------------
 (0) _main                                                 2     2      0    2698
                                             55 COMRAM     2     2      0
                  _SYSTEM_Initialize
                          _calc_dist
 ---------------------------------------------------------------------------------
 (1) _calc_dist                                           10     8      2    2583
                                             53 COMRAM     2     0      2
                                              0 BANK0      8     8      0
                            ___fldiv
                            ___fltol
                           ___xxtofl
 ---------------------------------------------------------------------------------
 (2) ___xxtofl                                            14    10      4     511
                                              4 COMRAM    14    10      4
 ---------------------------------------------------------------------------------
 (2) ___fltol                                             10     6      4     340
                                             43 COMRAM    10     6      4
                            ___fldiv (ARG)
                           ___xxtofl (ARG)
 ---------------------------------------------------------------------------------
 (2) ___fldiv                                             25    17      8    1689
                                             18 COMRAM    25    17      8
                           ___xxtofl (ARG)
 ---------------------------------------------------------------------------------
 (1) _SYSTEM_Initialize                                    0     0      0     115
                     _ETH_Initialize
                 _EUSART1_Initialize
               _INTERRUPT_Initialize
              _OSCILLATOR_Initialize
             _PIN_MANAGER_Initialize
 ---------------------------------------------------------------------------------
 (2) _PIN_MANAGER_Initialize                               0     0      0       0
 ---------------------------------------------------------------------------------
 (2) _OSCILLATOR_Initialize                                0     0      0       0
 ---------------------------------------------------------------------------------
 (2) _INTERRUPT_Initialize                                 0     0      0       0
 ---------------------------------------------------------------------------------
 (2) _EUSART1_Initialize                                   0     0      0     115
            _EUSART1_SetErrorHandler
     _EUSART1_SetFramingErrorHandler
     _EUSART1_SetOverrunErrorHandler
      _EUSART1_SetRxInterruptHandler
      _EUSART1_SetTxInterruptHandler
 ---------------------------------------------------------------------------------
 (3) _EUSART1_SetTxInterruptHandler                        3     0      3      23
                                              4 COMRAM     3     0      3
 ---------------------------------------------------------------------------------
 (3) _EUSART1_SetRxInterruptHandler                        3     0      3      23
                                              4 COMRAM     3     0      3
 ---------------------------------------------------------------------------------
 (3) _EUSART1_SetOverrunErrorHandler                       3     0      3      23
                                              4 COMRAM     3     0      3
 ---------------------------------------------------------------------------------
 (3) _EUSART1_SetFramingErrorHandler                       3     0      3      23
                                              4 COMRAM     3     0      3
 ---------------------------------------------------------------------------------
 (3) _EUSART1_SetErrorHandler                              3     0      3      23
                                              4 COMRAM     3     0      3
 ---------------------------------------------------------------------------------
 (2) _ETH_Initialize                                       0     0      0       0
 ---------------------------------------------------------------------------------
 Estimated maximum stack depth 3
 ---------------------------------------------------------------------------------
 (Depth) Function   	        Calls       Base Space   Used Autos Params    Refs
 ---------------------------------------------------------------------------------
 (4) _INTERRUPT_InterruptManager                           4     4      0       0
                                              0 COMRAM     4     4      0
                                NULL *
                _EUSART1_Receive_ISR *
               _EUSART1_Transmit_ISR *
                    _PIN_MANAGER_IOC
 ---------------------------------------------------------------------------------
 (5) _PIN_MANAGER_IOC                                      0     0      0       0
 ---------------------------------------------------------------------------------
 (5) _EUSART1_Transmit_ISR                                 0     0      0       0
 ---------------------------------------------------------------------------------
 (5) _EUSART1_Receive_ISR                                  0     0      0       0
                                NULL *
        _EUSART1_DefaultErrorHandler *
 _EUSART1_DefaultFramingErrorHandler *
 _EUSART1_DefaultOverrunErrorHandler *
              _EUSART1_RxDataHandler
 ---------------------------------------------------------------------------------
 (6) _EUSART1_DefaultOverrunErrorHandler                   0     0      0       0
 ---------------------------------------------------------------------------------
 (6) _EUSART1_DefaultFramingErrorHandler                   0     0      0       0
 ---------------------------------------------------------------------------------
 (6) _EUSART1_DefaultErrorHandler                          0     0      0       0
              _EUSART1_RxDataHandler
 ---------------------------------------------------------------------------------
 (7) _EUSART1_RxDataHandler                                0     0      0       0
 ---------------------------------------------------------------------------------
 (6) NULL(Fake)                                            0     0      0       0
 ---------------------------------------------------------------------------------
 Estimated maximum stack depth 7
 ---------------------------------------------------------------------------------

 Call Graph Graphs:

 _main (ROOT)
   _SYSTEM_Initialize
     _ETH_Initialize
     _EUSART1_Initialize
       _EUSART1_SetErrorHandler
       _EUSART1_SetFramingErrorHandler
       _EUSART1_SetOverrunErrorHandler
       _EUSART1_SetRxInterruptHandler
       _EUSART1_SetTxInterruptHandler
     _INTERRUPT_Initialize
     _OSCILLATOR_Initialize
     _PIN_MANAGER_Initialize
   _calc_dist
     ___fldiv
       ___xxtofl (ARG)
     ___fltol
       ___fldiv (ARG)
       ___xxtofl (ARG)
     ___xxtofl

 _INTERRUPT_InterruptManager (ROOT)
   NULL(Fake) *
   _EUSART1_Receive_ISR *
     NULL(Fake) *
     _EUSART1_DefaultErrorHandler *
       _EUSART1_RxDataHandler
     _EUSART1_DefaultFramingErrorHandler *
     _EUSART1_DefaultOverrunErrorHandler *
     _EUSART1_RxDataHandler *
   _EUSART1_Transmit_ISR *
   _PIN_MANAGER_IOC *

Address spaces:
Name               Size   Autos  Total    Usage
BIGRAM            3711      0       0      0.0%
BITBANK13          256      0       0      0.0%
BANK13             256      0       0      0.0%
BITBANK12          256      0       0      0.0%
BANK12             256      0       0      0.0%
BITBANK11          256      0       0      0.0%
BANK11             256      0       0      0.0%
BITBANK10          256      0       0      0.0%
BANK10             256      0       0      0.0%
BITBANK9           256      0       0      0.0%
BANK9              256      0       0      0.0%
BITBANK8           256      0       0      0.0%
BANK8              256      0       0      0.0%
BITBANK7           256      0       0      0.0%
BANK7              256      0       0      0.0%
BITBANK6           256      0       0      0.0%
BANK6              256      0       0      0.0%
BITBANK5           256      0       0      0.0%
BANK5              256      0       0      0.0%
BITBANK4           256      0       0      0.0%
BANK4              256      0       0      0.0%
BITBANK3           256      0       0      0.0%
BANK3              256      0       0      0.0%
BITBANK2           256      0       0      0.0%
BANK2              256      0       0      0.0%
BITBANK1           256      0       0      0.0%
BANK1              256      0       0      0.0%
BITBANK0           160      0       0      0.0%
BANK0              160      8      25     15.6%
BITBANK14          128      0       0      0.0%
BANK14             128      0       0      0.0%
BITBIGSFR_1h       124      0       0      0.0%
BITBANK15           96      0       0      0.0%
BANK15              96      0       0      0.0%
BIGRAM_1            96      0       0      0.0%
BITCOMRAM           94      0       0      0.0%
COMRAM              94     57      86     91.5%
BITBIGSFRlh         90      0       0      0.0%
BITBIGSFRll         32      0       0      0.0%
BITBIGSFR_1ll       29      0       0      0.0%
BITBIGSFRh           4      0       0      0.0%
BITBIGSFR_1lh        1      0       0      0.0%
STACK                0      0       0      0.0%
DATA                 0      0     111      0.0%


Microchip Technology PIC18 Macro Assembler V3.10 build 20250813170317 
Symbol Table                                                                                   Wed Nov 19 18:34:40 2025

                      _eusart1TxBufferRemaining 004F                                    ___fldiv@aexp 002C  
                                  ___fldiv@bexp 002B                                    ___fldiv@sign 0024  
                                            l23 1962                                              l81 19C6  
                                            l58 1902                                              l78 1978  
                                           l300 172C                                             l301 172E  
                                           l222 19A2                                             l231 1994  
                                           l303 173C                                             l304 17A0  
                                           l225 19BE                                             l219 19B0  
                                           l228 1986                                             l156 181C  
                                           l248 19D6                                             l291 1874  
                                           l714 1648                                             l298 171E  
                                           _EIE 0EFB                                             l999 138E  
                                           _EIR 0F60                                             _RB1 7C09  
                                           _RA3 7C03                                             _RB2 7C0A  
                                           _RB5 7C0D                                             tosl 0FFD  
                                           wreg 0FE8                                      _TXSTA1bits 0FAC  
                                  ___fltol@exp1 0036                                            l1001 11F4  
                                          l1010 123A                                            l1011 1258  
                                          l1012 12B0                                            l1004 11B8  
                                          l1013 129E                                            l1110 194A  
                                          l1120 195E                                            l1112 1954  
                                          l2000 10F8                                            l1122 1960  
                                          l1114 1958                                            l1130 19D4  
                                          l2010 1120                                            l2002 10FC  
                                          l1116 195A                                            l1132 19C0  
                                          l1124 18D2                                            l2020 116E  
                                          l2100 1598                                            l1118 195C  
                                          l1134 19C4                                            l1126 18E0  
                                          l2030 11B6                                            l2022 117E  
                                          l2014 1134                                            l2006 1110  
                                          l2102 159A                                            l1128 1900  
                                          l2040 1204                                            l2032 11C2  
                                          l2024 1184                                            l2016 114E  
                                          l2008 1120                                            l2104 15AA  
                                          l1072 13E6                                            l2200 1822  
                                          l2042 121A                                            l2050 124A  
                                          l2034 11E0                                            l2026 1194  
                                          l2018 115E                                            l2130 1628  
                                          l2114 15D4                                            l2106 15AE  
                                          l2210 1830                                            l2202 1828  
                                          l1075 1542                                            l2060 12CC  
                                          l2052 1268                                            l2044 1220  
                                          l2036 11E2                                            l2028 11A8  
                                          l2132 1638                                            l2124 15FC  
                                          l2116 15DE                                            l2108 15BC  
                                          l2140 13B0                                            l2220 186C  
                                          l2212 1832                                            l2204 182A  
                                          l2070 1338                                            l2062 12DA  
                                          l2054 1296                                            l2046 122A  
                                          l2038 11F2                                            l2126 1608  
                                          l2118 15E8                                            l1086 14DA  
                                          l2150 1428                                            l2142 13F6  
                                          l2222 1878                                            l2214 184A  
                                          l2206 182C                                            l1079 147E  
                                          l1600 180A                                            l2080 137C  
                                          l2072 1352                                            l2064 1304  
                                          l2048 1238                                            l2128 1618  
                                          l2160 14B0                                            l2152 1434  
                                          l2144 140C                                            l2136 1392  
                                          l2216 184C                                            l2208 182E  
                                          l1610 1818                                            l1602 180C  
                                          l2082 1382                                            l2074 1368  
                                          l2058 12C0                                            l2066 1308  
                                          l2170 14EE                                            l2162 14BC  
                                          l2154 1466                                            l2138 13A2  
                                          l2218 184E                                            l1612 181A  
                                          l1604 180E                                            l2084 1384  
                                          l2076 136A                                            l2068 1322  
                                          l2092 1544                                            l2172 1512  
                                          l2164 14CA                                            l2156 1468  
                                          l2148 1420                                            l1606 1814  
                                          l2078 136E                                            l2094 155A  
                                          l2174 1522                                            l2166 14E8  
                                          l2158 1474                                            l2190 173E  
                                          l2182 16FA                                            l1560 197A  
                                          l1608 1816                                            l2176 1530  
                                          l2168 14EA                                            l2192 1798  
                                          l2184 1712                                            l1562 19A4  
                                          l2098 156E                                            l2178 1532  
                                          l2194 1798                                            l2186 1714  
                                          l1564 1996                                            l1580 17A4  
                                          l2188 171C                                            l1566 19B2  
                                          l1558 1988                                            l1590 17D2  
                                          l1582 17B4                                            l2198 181E  
                                          l1592 17D6                                            l1584 17C6  
                                          l1594 17DA                                            l1586 17CA  
                                          l1578 17A2                                            l1850 1970  
                                          l1596 17EA                                            l1588 17CE  
                                          l1852 1974                                            l1844 1964  
                                          l1598 17FA                                            l1846 1968  
                                          l1848 196C                                            l1960 101C  
                                          l1970 1050                                            l1962 101E  
                                          l1980 1080                                            l1964 102E  
                                          l1972 1056                                            l1956 1002  
                                          l1990 10B4                                            l1982 1082  
                                          l1974 1066                                            l1966 103E  
                                          l1958 100E                                            l1984 1092  
                                          l1992 10BA                                            l1976 106C  
                                          l1968 104E                                            l1994 10CA  
                                          l1986 10A2                                            l1978 1072  
                                          l1996 10E0                                            l1988 10B2  
                                          l1998 10F0                                            u1300 103E  
                                          u1301 103A                                            u1310 1080  
                                          u1311 107C                                            u1400 121A  
                                          u1320 1092                                            u1401 1216  
                                          u1321 108E                                            u1410 1238  
                                          u1330 10A2                                            u1411 1234  
                                          u1331 109E                                            u1500 137C  
                                          u1420 1258                                            u1340 10E0  
                                          u1501 1378                                            u1421 1254  
                                          u1341 10DC                                            _LATA 0F89  
                                          u1430 1268                                            u1350 1120  
                                          u1510 155A                                            _LATB 0F8A  
                                          u1431 1264                                            u1351 111C  
                                          u1511 1556                                            _LATC 0F8B  
                                          u1440 1296                                            u1360 1194  
                                          u1280 101C                                            u1520 158E  
                                          u1600 140C                                            _LATD 0F8C  
                                          u1441 1292                                            u1361 1190  
                                          u1281 1018                                            u1601 1408  
                                          _LATE 0F8D                                            u1450 12AC  
                                          u1370 11B6                                            u1290 102E  
                                          u1530 15BC                                            u1610 1462  
                                          _LATF 0F8E                                            u1451 12A8  
                                          u1371 11B2                                            u1291 102A  
                                          u1531 15B8                                            u1611 145E  
                                          _LATG 0F8F                                            u1460 12C0  
                                          u1380 11E0                                            u1540 15D0  
                                          u1620 14AC                                            u1700 186C  
                                          u1461 12BC                                            u1381 11DC  
                                          u1541 15CC                                            u1525 1584  
                                          u1621 14A8                                            u1701 1868  
                                          u1470 12DA                                            u1390 1204  
                                          u1550 15F8                                            u1630 14CA  
                                          u1471 12D6                                            u1391 1200  
                                          u1551 15F4                                            u1631 14C6  
                                          u1480 1322                                            u1560 1618  
                                          u1640 14DA                                            u1481 131E  
                                          u1561 1614                                            u1641 14D6  
                                          u1490 1352                                            u1570 1628  
                                          u1650 14E8                                            u1491 134E  
                                          u1571 1624                                            u1651 14E4  
                                          u1660 1522                                            u1580 13A2  
                                          u1661 151E                                            u1581 139E  
                                          u1717 183C                                            u1670 1530  
                                          u1590 13B0                                            u1671 152C  
                                          u1591 13AC                                            u1727 1882  
                                          u1680 172C                                            u1681 1728  
                                          u1737 1716                                            u1690 173C  
                                          u1691 1738                                            i2l61 19DA  
                                          _TMR1 0FCE                                            _main 181E  
                                          fsr2h 0FDA                                            indf2 0FDF  
                                          fsr2l 0FD9                                            btemp 0001  
                                          start 00D0                                 ___fldiv@new_exp 0025  
                                  ___param_bank 0000                   __end_of_OSCILLATOR_Initialize 19C8  
                         _eusart1RxStatusBuffer 003B                                   ___fltol@sign1 0035  
                                         ?_main 0002                                 __end_of___fldiv 1390  
                                         _ECON1 0FD2                                           _ECON2 0EFE  
                               __end_of___fltol 164A                                           _MICMD 0EB2  
                                         _ESTAT 0EFD                                           i2l210 19DC  
                                         i2l203 16F8                                           i2l213 19CC  
                                         i2l207 1926                                           i2l216 19D2  
                                         i2l261 00BC                                           i2l253 003E  
                                         i2l256 0086                                           i2l193 18CE  
                                         i2l196 18D0                                           _TRISA 0F92  
                                         _TRISB 0F93                                           _TRISC 0F94  
                                         _TRISD 0F95                                           _TRISE 0F96  
                                         _TRISF 0F97                                           _TRISG 0F98  
                          _EUSART1_Transmit_ISR 1898                         __end_of_PIN_MANAGER_IOC 19DC  
                                         btemp0 0001                                           btemp1 0002  
                                         pclath 0FFA                                           pclatu 0FFB  
                                         status 0FD8      __end_of_EUSART1_DefaultFramingErrorHandler 19DE  
          ??_EUSART1_DefaultFramingErrorHandler 0002             ?_EUSART1_DefaultFramingErrorHandler 0002  
            _EUSART1_DefaultFramingErrorHandler 19DC                                 __initialization 1928  
                    __end_of_EUSART1_Initialize 181E                                    __end_of_main 1898  
                   ?_INTERRUPT_InterruptManager 0002                                          ??_main 0039  
                                 __activetblptr 0003                           ?_EUSART1_Transmit_ISR 0002  
                                        _MACON1 0EA0                                          _MACON3 0EA2  
                                        _MACON4 0EA3                                          i2l1402 19D8  
                                        i2l1420 18B6                                          i2l1422 18C6  
                                        i2l1414 1898                                          i2l1424 18C8  
                                        i2l1416 18A8                                          i2l1418 18B4  
                                        i2l1614 19C8                                          i2l1616 19CE  
                                        i2l1570 1910                                          i2l1572 1912  
                                        i2l1574 1922                                          i2l1576 1924  
                                        i2l1568 1904                                          i2l1920 004C  
                                        i2l1922 005A                                          i2l1914 001A  
                                        i2l1860 166C                                          i2l1924 0068  
                                        i2l1916 0028                                          i2l1870 16D4  
                                        i2l1862 1688                                          i2l1854 164A  
                                        i2l1926 0094                                          i2l1918 0036  
                                        i2l1872 16F4                                          i2l1864 1696  
                                        i2l1856 1654                                          i2l1928 00A2  
                                        i2l1866 16A0                                          i2l1858 1662  
                                        i2l1868 16BC                                          _RCREG1 0FAE  
                                        _RCSTA1 0FAB                                          _OSCCON 0FD3  
                                        _SPBRG1 0FAF                                          _TMR1CS 7E69  
                                        _TMR1ON 7E68                                          _TXREG1 0FAD  
                              __end_of___xxtofl 1544                                          _TXSTA1 0FAC  
                                     ??___fldiv 001C                                       ??___fltol 0031  
                      ?_EUSART1_SetErrorHandler 0006                                          clear_0 192E  
                                        clear_1 193A                                          isa$std 0001  
              ??_EUSART1_SetOverrunErrorHandler 0009                 ?_EUSART1_SetOverrunErrorHandler 0006  
                                  __mediumconst 1000                                ?_PIN_MANAGER_IOC 0002  
                               _eusart1RxBuffer 0069                                 _eusart1TxBuffer 0043  
                                  ___xxtofl@arg 0010                                    ___xxtofl@exp 000F  
                             _SYSTEM_Initialize 1964                                    ___xxtofl@val 0006  
                                    __accesstop 0060                         __end_of__initialization 1940  
                            ?_SYSTEM_Initialize 0002                                   ___rparam_used 0001  
                                    ___fltol@f1 002D                   __end_of_EUSART1_RxDataHandler 1928  
                                __pcstackCOMRAM 0002                             ??_SYSTEM_Initialize 0009  
                        ??_EUSART1_Transmit_ISR 0002                     __end_of_EUSART1_Receive_ISR 16FA  
                     __end_of_SYSTEM_Initialize 197A                                   _eusart1RxHead 004E  
                                 _eusart1TxHead 0051                                   _eusart1RxTail 004D  
                                    __pbssBANK0 0069                                   _eusart1TxTail 0050  
             _EUSART1_TxDefaultInterruptHandler 0055                 ??_EUSART1_SetRxInterruptHandler 0009  
                                    __pnvCOMRAM 0052                 __end_of_EUSART1_SetErrorHandler 19C0  
                                _ETH_Initialize 194A                                         _MABBIPG 0EA4  
                                       _T1CKPS0 7E6C                                         _T1CKPS1 7E6D  
        __end_of_EUSART1_SetFramingErrorHandler 19B2                  _EUSART1_SetFramingErrorHandler 19A4  
                                     ?___xxtofl 0006                    ?_EUSART1_DefaultErrorHandler 0002  
                                       i2u42_40 18A8                                         i2u42_41 18A4  
                                       i2u43_40 18C6                                         i2u43_41 18C2  
                             __end_of_calc_dist 17A2                                         _OSCTUNE 0F9B  
                                       i2u67_40 1922                                         i2u67_41 191E  
                                       _SPBRGH1 0F7F                                         __Hparam 0000  
                                       __Lparam 0000                          __end_of_ETH_Initialize 1964  
                                       ___fldiv 1002                                         ___fltol 1544  
                                  __psmallconst 1000                                         __pcinit 1928  
                                       __ramtop 1000                                         __ptext0 181E  
                                       __ptext1 16FA                                         __ptext2 1390  
                                       __ptext3 1544                                         __ptext4 1002  
                                       __ptext5 1964                                         __ptext6 18D2  
                                       __ptext7 19C0                                         __ptext8 19D4  
                                       __ptext9 17A2                           _OSCILLATOR_Initialize 19C0  
                                    ??___xxtofl 000A                              _EUSART1_Initialize 17A2  
                      ??_PIN_MANAGER_Initialize 0006                   ??_EUSART1_DefaultErrorHandler 0002  
                          end_of_initialization 1940                             ?_EUSART1_Initialize 0002  
                   _EUSART1_OverrunErrorHandler 0063           __end_of_EUSART1_SetRxInterruptHandler 1996  
                 _EUSART1_SetRxInterruptHandler 1988                                 ?_ETH_Initialize 0002  
                                       postinc0 0FEE                            ??_EUSART1_Initialize 0009  
                                 ___xxtofl@sign 000E                                     ___fldiv@grs 0027  
                                   ___fldiv@rem 0020                    __end_of_INTERRUPT_Initialize 19D8  
                        ?_OSCILLATOR_Initialize 0002                             start_initialization 1928  
 EUSART1_SetRxInterruptHandler@interruptHandler 0006   EUSART1_SetTxInterruptHandler@interruptHandler 0006  
                         _EUSART1_RxDataHandler 1904                  ?_EUSART1_SetRxInterruptHandler 0006  
                                _eusart1RxCount 004C                                       ___fldiv@a 0018  
                                     ___fldiv@b 0014                                     __pbssCOMRAM 003B  
             _EUSART1_RxDefaultInterruptHandler 0052                                   __pcstackBANK0 0071  
                                     _calc_dist 16FA                 ??_EUSART1_SetTxInterruptHandler 0009  
              ??_EUSART1_SetFramingErrorHandler 0009                 ?_EUSART1_SetFramingErrorHandler 0006  
                                     __pnvBANK0 0060                          _PIN_MANAGER_Initialize 18D2  
                                     __pintcode 0008                                        ?___fldiv 0014  
                                      ?___fltol 002D                    ??_INTERRUPT_InterruptManager 0002  
                                   __smallconst 1000                                        _BAUDCON1 0F7E  
    __end_of_EUSART1_DefaultOverrunErrorHandler 19CE            ??_EUSART1_DefaultOverrunErrorHandler 0002  
           ?_EUSART1_DefaultOverrunErrorHandler 0002              _EUSART1_DefaultOverrunErrorHandler 19C8  
                          _EUSART1_ErrorHandler 0060                         _EUSART1_SetErrorHandler 19B2  
                          _INTERRUPT_Initialize 19D4                                      ?_calc_dist 0037  
       EUSART1_SetErrorHandler@interruptHandler 0006                                ??_ETH_Initialize 0006  
                                      _PIE1bits 0F9D                                        i2u110_40 1696  
                                      i2u110_41 1692                                        i2u112_40 16D4  
                                      i2u111_48 16A6                                        i2u120_40 004C  
                                      i2u112_41 16D0                                        i2u111_49 16BC  
                                      i2u120_41 0048                                        i2u121_40 005A  
                                      i2u121_41 0056                                        i2u113_48 16DA  
                                      i2u122_40 0068                                        i2u113_49 16F0  
                                      i2u122_41 0064                                        i2u108_40 1662  
                                      i2u124_40 0094                                        i2u123_48 006E  
                                      i2u108_41 165E                                        i2u124_41 0090  
                                      i2u123_49 0082                                        i2u125_40 00A2  
                                      i2u125_41 009E                                        i2u109_48 1672  
                                      i2u118_40 0028                                        i2u109_49 1688  
                                      i2u118_41 0024                                        i2u126_48 00A8  
                                      i2u119_40 0036                                        i2u126_49 00BC  
                                      i2u119_41 0032                                        _PIR1bits 0F9E  
                        ?_EUSART1_RxDataHandler 0002                                        _RCONbits 0FD0  
                             calc_dist@distance 0075                               ??_PIN_MANAGER_IOC 0002  
                                    _ADCON1bits 0FC1                           ?_INTERRUPT_Initialize 0002  
         __end_of_EUSART1_SetTxInterruptHandler 1988                   _EUSART1_SetTxInterruptHandler 197A  
                                      __Hrparam 0000                                        __Lrparam 0000  
                       ??_OSCILLATOR_Initialize 0006                       ??_EUSART1_SetErrorHandler 0009  
           __end_of_EUSART1_DefaultErrorHandler 19D4                     _EUSART1_DefaultErrorHandler 19CE  
                                      ___xxtofl 1390                                        __ptext10 197A  
                                      __ptext11 1988                                        __ptext20 19C8  
                                      __ptext12 1996                                        __ptext21 19DC  
                                      __ptext13 19A4                                        __ptext22 19CE  
                                      __ptext14 19B2                                        __ptext23 1904  
                                      __ptext15 194A                                        __ptext17 19D8  
                                      __ptext18 1898                                        __ptext19 164A  
                                   ??_calc_dist 0039  EUSART1_SetOverrunErrorHandler@interruptHandler 0006  
                                      isa$xinst 0000                                        int$flags 0001  
            __end_of_INTERRUPT_InterruptManager 00D0                      _INTERRUPT_InterruptManager 0008  
                   _EUSART1_FramingErrorHandler 0066                             _EUSART1_Receive_ISR 164A  
                                    _INTCONbits 0FF2                          ??_INTERRUPT_Initialize 0006  
                                      intlevel2 0000                            ?_EUSART1_Receive_ISR 0002  
                       ?_PIN_MANAGER_Initialize 0002          __end_of_EUSART1_SetOverrunErrorHandler 19A4  
                _EUSART1_SetOverrunErrorHandler 1996                                      _RCSTA1bits 0FAB  
                  __end_of_EUSART1_Transmit_ISR 18D2  EUSART1_SetFramingErrorHandler@interruptHandler 0006  
                ?_EUSART1_SetTxInterruptHandler 0006                              _eusart1RxLastError 004B  
                                calc_dist@timer 0071                           ??_EUSART1_Receive_ISR 0002  
                __end_of_PIN_MANAGER_Initialize 1904                                 _PIN_MANAGER_IOC 19D8  
                       ??_EUSART1_RxDataHandler 0002  
